

Microchip MPLAB XC8 Assembler V2.10 build 88905656 
                                                                                               Thu Nov 28 11:37:57 2019

Microchip MPLAB XC8 C Compiler v2.10 (Free license) build 20190730164152 Og1 
     1                           	processor	18F45K20
     2                           	fnconf	param0,??,?,0
     3                           	opt	pw 120
     4                           	opt	flic
     5                           	psect	idataBANK0,global,class=CODE,delta=1,noexec,minocg
     6                           	psect	idataBANK2,global,class=CODE,delta=1,noexec,minocg
     7                           	psect	smallconst,global,reloc=2,class=SMALLCONST,delta=1,noexec,minocg
     8                           	psect	cinit,global,reloc=2,class=CODE,delta=1,minocg
     9                           	psect	bssBANK0,global,class=BANK0,space=1,delta=1,lowdata,noexec,minocg
    10                           	psect	dataBANK0,global,class=BANK0,space=1,delta=1,lowdata,noexec,minocg
    11                           	psect	bssBANK1,global,class=BANK1,space=1,delta=1,lowdata,noexec,minocg
    12                           	psect	dataBANK2,global,class=BANK2,space=1,delta=1,lowdata,noexec,minocg
    13                           	psect	cstackBANK1,global,class=BANK1,space=1,delta=1,noexec,minocg
    14                           	psect	cstackBANK0,global,class=BANK0,space=1,delta=1,noexec,minocg
    15                           	psect	text0,global,reloc=2,class=CODE,delta=1,minocg
    16                           	psect	text1,global,reloc=2,class=CODE,delta=1,minocg
    17                           	psect	text2,global,reloc=2,class=CODE,delta=1,minocg
    18                           	psect	text3,global,reloc=2,class=CODE,delta=1,group=2,minocg
    19                           	psect	text4,global,reloc=2,class=CODE,delta=1,group=1,minocg
    20                           	psect	text5,global,reloc=2,class=CODE,delta=1,minocg
    21                           	psect	text6,global,reloc=2,class=CODE,delta=1,minocg
    22                           	psect	text7,global,reloc=2,class=CODE,delta=1,minocg
    23                           	psect	text8,global,reloc=2,class=CODE,delta=1,minocg
    24                           	psect	text9,global,reloc=2,class=CODE,delta=1,minocg
    25                           	psect	text10,global,reloc=2,class=CODE,delta=1,minocg
    26                           	psect	text11,global,reloc=2,class=CODE,delta=1,minocg
    27                           	psect	text12,global,reloc=2,class=CODE,delta=1,minocg
    28                           	psect	text13,global,reloc=2,class=CODE,delta=1,minocg
    29                           	psect	text14,global,reloc=2,class=CODE,delta=1,minocg
    30                           	psect	text15,global,reloc=2,class=CODE,delta=1,group=2,minocg
    31                           	psect	text16,global,reloc=2,class=CODE,delta=1,minocg
    32                           	psect	text17,global,reloc=2,class=CODE,delta=1,minocg
    33                           	psect	text18,global,reloc=2,class=CODE,delta=1,minocg
    34                           	psect	text19,global,reloc=2,class=CODE,delta=1,minocg
    35                           	psect	text20,global,reloc=2,class=CODE,delta=1,minocg
    36                           	psect	text21,global,reloc=2,class=CODE,delta=1,minocg
    37                           	psect	text22,global,reloc=2,class=CODE,delta=1,minocg
    38                           	psect	text23,global,reloc=2,class=CODE,delta=1,minocg
    39                           	psect	text24,global,reloc=2,class=CODE,delta=1,minocg
    40                           	psect	text25,global,reloc=2,class=CODE,delta=1,minocg
    41                           	psect	text26,global,reloc=2,class=CODE,delta=1,minocg
    42                           	psect	text27,global,reloc=2,class=CODE,delta=1,minocg
    43                           	psect	text28,global,reloc=2,class=CODE,delta=1,group=1,minocg
    44                           	psect	text29,global,reloc=2,class=CODE,delta=1,group=1,minocg
    45                           	psect	text30,global,reloc=2,class=CODE,delta=1,group=1,minocg
    46                           	psect	text31,global,reloc=2,class=CODE,delta=1,minocg
    47                           	psect	text32,global,reloc=2,class=CODE,delta=1,minocg
    48                           	psect	text33,global,reloc=2,class=CODE,delta=1,minocg
    49                           	psect	text34,global,reloc=2,class=CODE,delta=1,minocg
    50                           	psect	text35,global,reloc=2,class=CODE,delta=1,minocg
    51                           	psect	text36,global,reloc=2,class=CODE,delta=1,minocg
    52                           	psect	text37,global,reloc=2,class=CODE,delta=1,minocg
    53                           	psect	text38,global,reloc=2,class=CODE,delta=1,minocg
    54                           	psect	text39,global,reloc=2,class=CODE,delta=1,minocg
    55                           	psect	text40,global,reloc=2,class=CODE,delta=1,minocg
    56                           	psect	text41,global,reloc=2,class=CODE,delta=1,minocg
    57                           	psect	intsave_regs,global,class=BIGRAM,space=1,delta=1,noexec
    58                           	psect	param0,global,class=BANK0,space=1,delta=1,noexec
    59  0000                     
    60                           ; Version 2.10
    61                           ; Generated 31/07/2019 GMT
    62                           ; 
    63                           ; Copyright © 2019, Microchip Technology Inc. and its subsidiaries ("Microchip")
    64                           ; All rights reserved.
    65                           ; 
    66                           ; This software is developed by Microchip Technology Inc. and its subsidiaries ("Microch
      +                          ip").
    67                           ; 
    68                           ; Redistribution and use in source and binary forms, with or without modification, are
    69                           ; permitted provided that the following conditions are met:
    70                           ; 
    71                           ;     1. Redistributions of source code must retain the above copyright notice, this lis
      +                          t of
    72                           ;        conditions and the following disclaimer.
    73                           ; 
    74                           ;     2. Redistributions in binary form must reproduce the above copyright notice, this 
      +                          list
    75                           ;        of conditions and the following disclaimer in the documentation and/or other
    76                           ;        materials provided with the distribution.
    77                           ; 
    78                           ;     3. Microchip's name may not be used to endorse or promote products derived from th
      +                          is
    79                           ;        software without specific prior written permission.
    80                           ; 
    81                           ; THIS SOFTWARE IS PROVIDED BY MICROCHIP "AS IS" AND ANY EXPRESS OR IMPLIED WARRANTIES,
    82                           ; INCLUDING, BUT NOT LIMITED TO, THE IMPLIED WARRANTIES OF MERCHANTABILITY AND FITNESS F
      +                          OR
    83                           ; PURPOSE ARE DISCLAIMED.  IN NO EVENT SHALL MICROCHIP BE LIABLE FOR ANY DIRECT, INDIREC
      +                          T,
    84                           ; INCIDENTAL, SPECIAL, EXEMPLARY, OR CONSEQUENTIAL DAMAGES (INCLUDING BUT NOT LIMITED TO
    85                           ; PROCUREMENT OF SUBSTITUTE GOODS OR SERVICES; LOSS OF USE, DATA OR PROFITS; OR BUSINESS
    86                           ; INTERRUPTION) HOWSOEVER CAUSED AND ON ANY THEORY OF LIABILITY, WHETHER IN CONTRACT, ST
      +                          RICT
    87                           ; LIABILITY, OR TORT (INCLUDING NEGLIGENCE OR OTHERWISE) ARISING IN ANY WAY OUT OF THE U
      +                          SE OF
    88                           ; THIS SOFTWARE, EVEN IF ADVISED OF THE POSSIBILITY OF SUCH DAMAGE.
    89                           ; 
    90                           ; 
    91                           ; Code-generator required, PIC18F45K20 Definitions
    92                           ; 
    93                           ; SFR Addresses
    94  0000                     
    95                           	psect	idataBANK0
    96  0034C0                     __pidataBANK0:
    97                           	opt callstack 0
    98                           
    99                           ;initializer for _randx
   100  0034C0  0001               	dw	1
   101  0034C2  0000               	dw	0
   102                           
   103                           	psect	idataBANK2
   104  00331E                     __pidataBANK2:
   105                           	opt callstack 0
   106                           
   107                           ;initializer for _matCGRAM
   108  00331E  08                 	db	8
   109  00331F  04                 	db	4
   110  003320  04                 	db	4
   111  003321  0A                 	db	10
   112  003322  11                 	db	17
   113  003323  1F                 	db	31
   114  003324  11                 	db	17
   115  003325  00                 	db	0
   116  003326  1F                 	db	31
   117  003327  1B                 	db	27
   118  003328  11                 	db	17
   119  003329  11                 	db	17
   120  00332A  11                 	db	17
   121  00332B  11                 	db	17
   122  00332C  1B                 	db	27
   123  00332D  1F                 	db	31
   124  00332E  03                 	db	3
   125  00332F  04                 	db	4
   126  003330  0A                 	db	10
   127  003331  15                 	db	21
   128  003332  1F                 	db	31
   129  003333  15                 	db	21
   130  003334  0A                 	db	10
   131  003335  00                 	db	0
   132  003336  1F                 	db	31
   133  003337  11                 	db	17
   134  003338  11                 	db	17
   135  003339  1F                 	db	31
   136  00333A  10                 	db	16
   137  00333B  10                 	db	16
   138  00333C  10                 	db	16
   139  00333D  10                 	db	16
   140  00333E  11                 	db	17
   141  00333F  11                 	db	17
   142  003340  15                 	db	21
   143  003341  15                 	db	21
   144  003342  0E                 	db	14
   145  003343  0A                 	db	10
   146  003344  15                 	db	21
   147  003345  00                 	db	0
   148  003346  11                 	db	17
   149  003347  0A                 	db	10
   150  003348  04                 	db	4
   151  003349  1B                 	db	27
   152  00334A  11                 	db	17
   153  00334B  1B                 	db	27
   154  00334C  15                 	db	21
   155  00334D  00                 	db	0
   156  00334E  1B                 	db	27
   157  00334F  0E                 	db	14
   158  003350  1B                 	db	27
   159  003351  1B                 	db	27
   160  003352  1B                 	db	27
   161  003353  11                 	db	17
   162  003354  11                 	db	17
   163  003355  00                 	db	0
   164  003356  0A                 	db	10
   165  003357  04                 	db	4
   166  003358  15                 	db	21
   167  003359  15                 	db	21
   168  00335A  1B                 	db	27
   169  00335B  0A                 	db	10
   170  00335C  04                 	db	4
   171  00335D  00                 	db	0
   172                           
   173                           	psect	smallconst
   174  000600                     __psmallconst:
   175                           	opt callstack 0
   176  000600  00                 	db	0
   177  000601                     menuAccueil@F2919:
   178                           	opt callstack 0
   179  000601  4C                 	db	76
   180  000602  61                 	db	97
   181  000603  62                 	db	98
   182  000604  6F                 	db	111
   183  000605  72                 	db	114
   184  000606  61                 	db	97
   185  000607  74                 	db	116
   186  000608  6F                 	db	111
   187  000609  69                 	db	105
   188  00060A  72                 	db	114
   189  00060B  65                 	db	101
   190  00060C  20                 	db	32
   191  00060D  36                 	db	54
   192  00060E  20                 	db	32
   193  00060F  00                 	db	0
   194  000610  00                 	db	0
   195  000611  00                 	db	0
   196  000612  00                 	db	0
   197  000613  00                 	db	0
   198  000614  00                 	db	0
   199  000615  53                 	db	83
   200  000616  69                 	db	105
   201  000617  6D                 	db	109
   202  000618  6F                 	db	111
   203  000619  6E                 	db	110
   204  00061A  20                 	db	32
   205  00061B  4A                 	db	74
   206  00061C  6F                 	db	111
   207  00061D  75                 	db	117
   208  00061E  72                 	db	114
   209  00061F  64                 	db	100
   210  000620  65                 	db	101
   211  000621  6E                 	db	110
   212  000622  61                 	db	97
   213  000623  69                 	db	105
   214  000624  73                 	db	115
   215  000625  00                 	db	0
   216  000626  00                 	db	0
   217  000627  00                 	db	0
   218  000628  00                 	db	0
   219  000629                     __end_ofmenuAccueil@F2919:
   220                           	opt callstack 0
   221  0000                     _TMR1	set	4046
   222  0000                     _PORTAbits	set	3968
   223  0000                     _PORTD	set	3971
   224  0000                     _RCREG	set	4014
   225  0000                     _TXREG	set	4013
   226  0000                     _RCSTAbits	set	4011
   227  0000                     _TXSTAbits	set	4012
   228  0000                     _BAUDCONbits	set	4024
   229  0000                     _SPBRG	set	4015
   230  0000                     _SPBRGH	set	4016
   231  0000                     _TRISCbits	set	3988
   232  0000                     _ADCON2bits	set	4032
   233  0000                     _ADCON1	set	4033
   234  0000                     _ANSELbits	set	3966
   235  0000                     _T1CONbits	set	4045
   236  0000                     _TRISA	set	3986
   237  0000                     _ANSEL	set	3966
   238  0000                     _TRISB	set	3987
   239  0000                     _ANSELH	set	3967
   240  0000                     _TRISD	set	3989
   241  0000                     _ADRESH	set	4036
   242  0000                     _ADCON0bits	set	4034
   243  0000                     _PORTBbits	set	3969
   244  0000                     _RCIF	set	31989
   245  000629                     STR_1:
   246  000629  59                 	db	89	;'Y'
   247  00062A  4F                 	db	79	;'O'
   248  00062B  55                 	db	85	;'U'
   249  00062C  20                 	db	32
   250  00062D  57                 	db	87	;'W'
   251  00062E  49                 	db	73	;'I'
   252  00062F  4E                 	db	78	;'N'
   253  000630  21                 	db	33
   254  000631  00                 	db	0
   255  000632                     STR_2:
   256  000632  2B                 	db	43
   257  000633  31                 	db	49	;'1'
   258  000634  20                 	db	32
   259  000635  4D                 	db	77	;'M'
   260  000636  69                 	db	105	;'i'
   261  000637  6E                 	db	110	;'n'
   262  000638  65                 	db	101	;'e'
   263  000639  00                 	db	0
   264                           
   265                           ; #config settings
   266  00063A  00                 	db	0	; dummy byte at the end
   267  0000                     
   268                           	psect	cinit
   269  0031D4                     __pcinit:
   270                           	opt callstack 0
   271  0031D4                     start_initialization:
   272                           	opt callstack 0
   273  0031D4                     __initialization:
   274                           	opt callstack 0
   275                           
   276                           ; Initialize objects allocated to BANK2 (64 bytes)
   277                           ; load TBLPTR registers with __pidataBANK2
   278  0031D4  0E1E               	movlw	low __pidataBANK2
   279  0031D6  6EF6               	movwf	tblptrl,c
   280  0031D8  0E33               	movlw	high __pidataBANK2
   281  0031DA  6EF7               	movwf	tblptrh,c
   282  0031DC  0E00               	movlw	low (__pidataBANK2 shr (0+16))
   283  0031DE  6EF8               	movwf	tblptru,c
   284  0031E0  EE02  F000         	lfsr	0,__pdataBANK2
   285  0031E4  EE10 F040          	lfsr	1,64
   286  0031E8                     copy_data0:
   287  0031E8  0009               	tblrd		*+
   288  0031EA  CFF5 FFEE          	movff	tablat,postinc0
   289  0031EE  50E5               	movf	postdec1,w,c
   290  0031F0  50E1               	movf	fsr1l,w,c
   291  0031F2  E1FA               	bnz	copy_data0
   292                           
   293                           ; Initialize objects allocated to BANK0 (4 bytes)
   294                           ; load TBLPTR registers with __pidataBANK0
   295  0031F4  0EC0               	movlw	low __pidataBANK0
   296  0031F6  6EF6               	movwf	tblptrl,c
   297  0031F8  0E34               	movlw	high __pidataBANK0
   298  0031FA  6EF7               	movwf	tblptrh,c
   299  0031FC  0E00               	movlw	low (__pidataBANK0 shr (0+16))
   300  0031FE  6EF8               	movwf	tblptru,c
   301  003200  EE00  F0F6         	lfsr	0,__pdataBANK0
   302  003204  EE10 F004          	lfsr	1,4
   303  003208                     copy_data1:
   304  003208  0009               	tblrd		*+
   305  00320A  CFF5 FFEE          	movff	tablat,postinc0
   306  00320E  50E5               	movf	postdec1,w,c
   307  003210  50E1               	movf	fsr1l,w,c
   308  003212  E1FA               	bnz	copy_data1
   309                           
   310                           ; Clear objects allocated to BANK1 (84 bytes)
   311  003214  EE01  F09C         	lfsr	0,__pbssBANK1
   312  003218  0E54               	movlw	84
   313  00321A                     clear_0:
   314  00321A  6AEE               	clrf	postinc0,c
   315  00321C  06E8               	decf	wreg,f,c
   316  00321E  E1FD               	bnz	clear_0
   317                           
   318                           ; Clear objects allocated to BANK0 (84 bytes)
   319  003220  EE00  F060         	lfsr	0,__pbssBANK0
   320  003224  0E54               	movlw	84
   321  003226                     clear_1:
   322  003226  6AEE               	clrf	postinc0,c
   323  003228  06E8               	decf	wreg,f,c
   324  00322A  E1FD               	bnz	clear_1
   325  00322C                     end_of_initialization:
   326                           	opt callstack 0
   327  00322C                     __end_of__initialization:
   328                           	opt callstack 0
   329  00322C  0100               	movlb	0
   330  00322E  EFE6  F010         	goto	_main	;jump to C main() function
   331                           
   332                           	psect	bssBANK0
   333  000060                     __pbssBANK0:
   334                           	opt callstack 0
   335  000060                     _m_tabMines:
   336                           	opt callstack 0
   337  000060                     	ds	84
   338                           
   339                           	psect	dataBANK0
   340  0000F6                     __pdataBANK0:
   341                           	opt callstack 0
   342  0000F6                     _randx:
   343                           	opt callstack 0
   344  0000F6                     	ds	4
   345                           
   346                           	psect	bssBANK1
   347  00019C                     __pbssBANK1:
   348                           	opt callstack 0
   349  00019C                     _m_tabVue:
   350                           	opt callstack 0
   351  00019C                     	ds	84
   352                           
   353                           	psect	dataBANK2
   354  000200                     __pdataBANK2:
   355                           	opt callstack 0
   356  000200                     _matCGRAM:
   357                           	opt callstack 0
   358  000200                     	ds	64
   359                           
   360                           	psect	cstackBANK1
   361  000100                     __pcstackBANK1:
   362                           	opt callstack 0
   363  000100                     openSpaces@caseVide:
   364                           	opt callstack 0
   365                           
   366                           ; 152 bytes @ 0x0
   367  000100                     	ds	152
   368  000198                     openSpaces@i:
   369                           	opt callstack 0
   370                           
   371                           ; 2 bytes @ 0x98
   372  000198                     	ds	2
   373  00019A                     openSpaces@xCoord:
   374                           	opt callstack 0
   375                           
   376                           ; 1 bytes @ 0x9A
   377  00019A                     	ds	1
   378  00019B                     openSpaces@yCoord:
   379                           	opt callstack 0
   380                           
   381                           ; 1 bytes @ 0x9B
   382  00019B                     	ds	1
   383                           
   384                           	psect	cstackBANK0
   385  0000B4                     __pcstackBANK0:
   386                           	opt callstack 0
   387  0000B4                     ??_initTabVue:
   388  0000B4                     ??_getAnalog:
   389  0000B4                     ??_videMines:
   390  0000B4                     ??_lcd_ecrireDonnees:
   391  0000B4                     ??_lcd_busy:
   392  0000B4                     ?___wmul:
   393                           	opt callstack 0
   394  0000B4                     ?___awdiv:
   395                           	opt callstack 0
   396  0000B4                     ?___lmul:
   397                           	opt callstack 0
   398  0000B4                     ___wmul@multiplier:
   399                           	opt callstack 0
   400  0000B4                     ___awdiv@dividend:
   401                           	opt callstack 0
   402  0000B4                     srand@x:
   403                           	opt callstack 0
   404  0000B4                     ___lmul@multiplier:
   405                           	opt callstack 0
   406                           
   407                           ; 4 bytes @ 0x0
   408  0000B4                     	ds	1
   409  0000B5                     getAnalog@canal:
   410                           	opt callstack 0
   411  0000B5                     lcd_ecrireDonnees@donnee:
   412                           	opt callstack 0
   413  0000B5                     lcd_busy@adresse:
   414                           	opt callstack 0
   415                           
   416                           ; 1 bytes @ 0x1
   417  0000B5                     	ds	1
   418  0000B6                     ??_lcd_resetSequence:
   419  0000B6                     initTabVue@i:
   420                           	opt callstack 0
   421  0000B6                     videMines@i:
   422                           	opt callstack 0
   423  0000B6                     lcd_wrCom@commande:
   424                           	opt callstack 0
   425  0000B6                     lcd_wrData@caractere:
   426                           	opt callstack 0
   427  0000B6                     ___wmul@multiplicand:
   428                           	opt callstack 0
   429  0000B6                     ___awdiv@divisor:
   430                           	opt callstack 0
   431                           
   432                           ; 2 bytes @ 0x2
   433  0000B6                     	ds	1
   434  0000B7                     ??_lcd_initCGRam:
   435  0000B7                     initTabVue@j:
   436                           	opt callstack 0
   437  0000B7                     videMines@j:
   438                           	opt callstack 0
   439  0000B7                     lcd_gotoXY@y:
   440                           	opt callstack 0
   441  0000B7                     lcd_ecritChar@car:
   442                           	opt callstack 0
   443                           
   444                           ; 1 bytes @ 0x3
   445  0000B7                     	ds	1
   446  0000B8                     initTabVue@k:
   447                           	opt callstack 0
   448  0000B8                     lcd_gotoXY@x:
   449                           	opt callstack 0
   450  0000B8                     lcd_ecritChar@posRam:
   451                           	opt callstack 0
   452  0000B8                     ___awdiv@counter:
   453                           	opt callstack 0
   454  0000B8                     ___wmul@product:
   455                           	opt callstack 0
   456  0000B8                     ___lmul@multiplicand:
   457                           	opt callstack 0
   458                           
   459                           ; 4 bytes @ 0x4
   460  0000B8                     	ds	1
   461  0000B9                     lcd_initCGRam@i:
   462                           	opt callstack 0
   463  0000B9                     ___awdiv@sign:
   464                           	opt callstack 0
   465  0000B9                     deplace@x:
   466                           	opt callstack 0
   467  0000B9                     lcd_putMessage@chaine:
   468                           	opt callstack 0
   469                           
   470                           ; 3 bytes @ 0x5
   471  0000B9                     	ds	1
   472  0000BA                     enleveEspaceAutour@y:
   473                           	opt callstack 0
   474  0000BA                     lcd_initCGRam@j:
   475                           	opt callstack 0
   476  0000BA                     calculToucheCombien@ligne:
   477                           	opt callstack 0
   478  0000BA                     verifieToucheEspace@tabVerif:
   479                           	opt callstack 0
   480  0000BA                     ___awdiv@quotient:
   481                           	opt callstack 0
   482                           
   483                           ; 2 bytes @ 0x6
   484  0000BA                     	ds	1
   485  0000BB                     ??_enleveEspaceAutour:
   486  0000BB                     deplace@y:
   487                           	opt callstack 0
   488                           
   489                           ; 2 bytes @ 0x7
   490  0000BB                     	ds	1
   491  0000BC                     ??_lcd_putMessage:
   492  0000BC                     calculToucheCombien@colonne:
   493                           	opt callstack 0
   494  0000BC                     verifieToucheEspace@ligne:
   495                           	opt callstack 0
   496  0000BC                     ___lmul@product:
   497                           	opt callstack 0
   498                           
   499                           ; 4 bytes @ 0x8
   500  0000BC                     	ds	1
   501  0000BD                     ??_deplace:
   502                           
   503                           ; 1 bytes @ 0x9
   504  0000BD                     	ds	1
   505  0000BE                     ??_calculToucheCombien:
   506  0000BE                     verifieToucheEspace@colonne:
   507                           	opt callstack 0
   508                           
   509                           ; 2 bytes @ 0xA
   510  0000BE                     	ds	2
   511  0000C0                     ?_rand:
   512                           	opt callstack 0
   513  0000C0                     verifieToucheEspace@iCount:
   514                           	opt callstack 0
   515                           
   516                           ; 1 bytes @ 0xC
   517  0000C0                     	ds	1
   518  0000C1                     ??_verifieToucheEspace:
   519  0000C1                     lcd_putMessage@j:
   520                           	opt callstack 0
   521                           
   522                           ; 1 bytes @ 0xD
   523  0000C1                     	ds	1
   524  0000C2                     ??_menuAccueil:
   525  0000C2                     ??_afficheTabVue:
   526  0000C2                     ??_afficheTabMines:
   527  0000C2                     ??_afficheGagne:
   528  0000C2                     ?___awmod:
   529                           	opt callstack 0
   530  0000C2                     ___awmod@dividend:
   531                           	opt callstack 0
   532                           
   533                           ; 2 bytes @ 0xE
   534  0000C2                     	ds	1
   535  0000C3                     calculToucheCombien@nombreTouche:
   536                           	opt callstack 0
   537  0000C3                     enleveEspaceAutour@xTabCol:
   538                           	opt callstack 0
   539                           
   540                           ; 1 bytes @ 0xF
   541  0000C3                     	ds	1
   542  0000C4                     ??_metToucheCombien:
   543  0000C4                     afficheTabVue@i:
   544                           	opt callstack 0
   545  0000C4                     afficheTabMines@i:
   546                           	opt callstack 0
   547  0000C4                     enleveEspaceAutour@yTabLigne:
   548                           	opt callstack 0
   549  0000C4                     gagne@pMines:
   550                           	opt callstack 0
   551  0000C4                     ___awmod@divisor:
   552                           	opt callstack 0
   553  0000C4                     menuAccueil@menuMsgs:
   554                           	opt callstack 0
   555                           
   556                           ; 40 bytes @ 0x10
   557  0000C4                     	ds	1
   558  0000C5                     enleveEspaceAutour@x:
   559                           	opt callstack 0
   560                           
   561                           ; 1 bytes @ 0x11
   562  0000C5                     	ds	1
   563  0000C6                     ??_gagne:
   564  0000C6                     verifieToucheEspace@i:
   565                           	opt callstack 0
   566  0000C6                     enleveEspaceAutour@j:
   567                           	opt callstack 0
   568  0000C6                     ___awmod@counter:
   569                           	opt callstack 0
   570                           
   571                           ; 1 bytes @ 0x12
   572  0000C6                     	ds	1
   573  0000C7                     metToucheCombien@minesTouche:
   574                           	opt callstack 0
   575  0000C7                     enleveEspaceAutour@i:
   576                           	opt callstack 0
   577  0000C7                     ___awmod@sign:
   578                           	opt callstack 0
   579                           
   580                           ; 1 bytes @ 0x13
   581  0000C7                     	ds	1
   582  0000C8                     metToucheCombien@k:
   583                           	opt callstack 0
   584  0000C8                     rempliMines@nb:
   585                           	opt callstack 0
   586  0000C8                     openSpaces@ligne:
   587                           	opt callstack 0
   588                           
   589                           ; 2 bytes @ 0x14
   590  0000C8                     	ds	1
   591  0000C9                     metToucheCombien@i:
   592                           	opt callstack 0
   593                           
   594                           ; 1 bytes @ 0x15
   595  0000C9                     	ds	1
   596  0000CA                     ??_rempliMines:
   597  0000CA                     metToucheCombien@j:
   598                           	opt callstack 0
   599  0000CA                     gagne@compteurBombe:
   600                           	opt callstack 0
   601  0000CA                     openSpaces@colonne:
   602                           	opt callstack 0
   603                           
   604                           ; 2 bytes @ 0x16
   605  0000CA                     	ds	1
   606  0000CB                     gagne@resteTuiles:
   607                           	opt callstack 0
   608                           
   609                           ; 1 bytes @ 0x17
   610  0000CB                     	ds	1
   611  0000CC                     ??_openSpaces:
   612  0000CC                     gagne@i:
   613                           	opt callstack 0
   614                           
   615                           ; 1 bytes @ 0x18
   616  0000CC                     	ds	1
   617  0000CD                     rempliMines@mineReste:
   618                           	opt callstack 0
   619  0000CD                     gagne@j:
   620                           	opt callstack 0
   621                           
   622                           ; 1 bytes @ 0x19
   623  0000CD                     	ds	1
   624  0000CE                     rempliMines@x:
   625                           	opt callstack 0
   626                           
   627                           ; 1 bytes @ 0x1A
   628  0000CE                     	ds	1
   629  0000CF                     rempliMines@y:
   630                           	opt callstack 0
   631                           
   632                           ; 1 bytes @ 0x1B
   633  0000CF                     	ds	1
   634  0000D0                     enleveTuilesAutour@y:
   635                           	opt callstack 0
   636                           
   637                           ; 1 bytes @ 0x1C
   638  0000D0                     	ds	1
   639  0000D1                     ??_enleveTuilesAutour:
   640                           
   641                           ; 1 bytes @ 0x1D
   642  0000D1                     	ds	8
   643  0000D9                     enleveTuilesAutour@x:
   644                           	opt callstack 0
   645                           
   646                           ; 1 bytes @ 0x25
   647  0000D9                     	ds	1
   648  0000DA                     enleveTuilesAutour@xTabCol:
   649                           	opt callstack 0
   650                           
   651                           ; 1 bytes @ 0x26
   652  0000DA                     	ds	1
   653  0000DB                     enleveTuilesAutour@yTabLigne:
   654                           	opt callstack 0
   655                           
   656                           ; 1 bytes @ 0x27
   657  0000DB                     	ds	1
   658  0000DC                     enleveTuilesAutour@j:
   659                           	opt callstack 0
   660                           
   661                           ; 1 bytes @ 0x28
   662  0000DC                     	ds	1
   663  0000DD                     enleveTuilesAutour@i:
   664                           	opt callstack 0
   665                           
   666                           ; 1 bytes @ 0x29
   667  0000DD                     	ds	1
   668  0000DE                     demine@y:
   669                           	opt callstack 0
   670                           
   671                           ; 1 bytes @ 0x2A
   672  0000DE                     	ds	1
   673  0000DF                     ??_demine:
   674                           
   675                           ; 1 bytes @ 0x2B
   676  0000DF                     	ds	8
   677  0000E7                     demine@x:
   678                           	opt callstack 0
   679                           
   680                           ; 1 bytes @ 0x33
   681  0000E7                     	ds	5
   682  0000EC                     ??_main:
   683                           
   684                           ; 1 bytes @ 0x38
   685  0000EC                     	ds	5
   686  0000F1                     main@finPartie:
   687                           	opt callstack 0
   688                           
   689                           ; 1 bytes @ 0x3D
   690  0000F1                     	ds	1
   691  0000F2                     main@nbMines:
   692                           	opt callstack 0
   693                           
   694                           ; 2 bytes @ 0x3E
   695  0000F2                     	ds	2
   696  0000F4                     main@posY:
   697                           	opt callstack 0
   698                           
   699                           ; 1 bytes @ 0x40
   700  0000F4                     	ds	1
   701  0000F5                     main@posX:
   702                           	opt callstack 0
   703                           
   704                           ; 1 bytes @ 0x41
   705  0000F5                     	ds	1
   706                           
   707 ;;
   708 ;;Main: autosize = 0, tempsize = 5, incstack = 0, save=0
   709 ;;
   710 ;; *************** function _main *****************
   711 ;; Defined at:
   712 ;;		line 75 in file "main.c"
   713 ;; Parameters:    Size  Location     Type
   714 ;;		None
   715 ;; Auto vars:     Size  Location     Type
   716 ;;  nbMines         2   62[BANK0 ] int 
   717 ;;  posX            1   65[BANK0 ] unsigned char 
   718 ;;  posY            1   64[BANK0 ] unsigned char 
   719 ;;  finPartie       1   61[BANK0 ] unsigned char 
   720 ;; Return value:  Size  Location     Type
   721 ;;                  1    wreg      void 
   722 ;; Registers used:
   723 ;;		wreg, fsr1l, fsr1h, fsr2l, fsr2h, status,2, status,0, tblptrl, tblptrh, tblptru, prodl, prodh, cstack
   724 ;; Tracked objects:
   725 ;;		On entry : 0/0
   726 ;;		On exit  : 0/0
   727 ;;		Unchanged: 0/0
   728 ;; Data sizes:     COMRAM   BANK0   BANK1   BANK2   BANK3   BANK4   BANK5
   729 ;;      Params:         0       0       0       0       0       0       0
   730 ;;      Locals:         0       5       0       0       0       0       0
   731 ;;      Temps:          0       5       0       0       0       0       0
   732 ;;      Totals:         0      10       0       0       0       0       0
   733 ;;Total ram usage:       10 bytes
   734 ;; Hardware stack levels required when called:    8
   735 ;; This function calls:
   736 ;;		_afficheTabMines
   737 ;;		_afficheTabVue
   738 ;;		_demine
   739 ;;		_deplace
   740 ;;		_gagne
   741 ;;		_initTabVue
   742 ;;		_init_serie
   743 ;;		_initialisation
   744 ;;		_lcd_ecritChar
   745 ;;		_lcd_init
   746 ;;		_lcd_montreCurseur
   747 ;;		_menuAccueil
   748 ;;		_metToucheCombien
   749 ;;		_rempliMines
   750 ;; This function is called by:
   751 ;;		Startup code after reset
   752 ;; This function uses a non-reentrant model
   753 ;;
   754                           
   755                           	psect	text0
   756  0021CC                     __ptext0:
   757                           	opt callstack 0
   758  0021CC                     _main:
   759                           	opt callstack 23
   760  0021CC                     
   761                           ;main.c: 78: unsigned char posY =4/2;
   762  0021CC  0E02               	movlw	2
   763  0021CE  0100               	movlb	0	; force () banked
   764  0021D0  6FF4               	movwf	main@posY& (0+255),b
   765                           
   766                           ;main.c: 79: unsigned char posX =20/2;
   767  0021D2  0E0A               	movlw	10
   768  0021D4  0100               	movlb	0	; force () banked
   769  0021D6  6FF5               	movwf	main@posX& (0+255),b
   770                           
   771                           ;main.c: 80: int nbMines=12;
   772  0021D8  0E00               	movlw	0
   773  0021DA  0100               	movlb	0	; force () banked
   774  0021DC  6FF3               	movwf	(main@nbMines+1)& (0+255),b
   775  0021DE  0E0C               	movlw	12
   776  0021E0  6FF2               	movwf	main@nbMines& (0+255),b
   777                           
   778                           ;main.c: 81: bool finPartie=0;
   779  0021E2  0E00               	movlw	0
   780  0021E4  0100               	movlb	0	; force () banked
   781  0021E6  6FF1               	movwf	main@finPartie& (0+255),b
   782  0021E8                     
   783                           ; BSR set to: 0
   784                           ;main.c: 84: initialisation();
   785  0021E8  ECAF  F019         	call	_initialisation	;wreg free
   786  0021EC                     
   787                           ;main.c: 85: init_serie();
   788  0021EC  EC21  F01A         	call	_init_serie	;wreg free
   789  0021F0                     
   790                           ;main.c: 86: lcd_init();
   791  0021F0  ECF9  F019         	call	_lcd_init	;wreg free
   792  0021F4                     
   793                           ;main.c: 87: menuAccueil();
   794  0021F4  EC2A  F017         	call	_menuAccueil	;wreg free
   795  0021F8                     
   796                           ;main.c: 88: lcd_montreCurseur();
   797  0021F8  EC51  F01A         	call	_lcd_montreCurseur	;wreg free
   798  0021FC                     
   799                           ;main.c: 90: initTabVue();
   800  0021FC  ECA8  F014         	call	_initTabVue	;wreg free
   801  002200                     
   802                           ;main.c: 91: rempliMines(nbMines);
   803  002200  C0F2  F0C8         	movff	main@nbMines,rempliMines@nb
   804  002204  C0F3  F0C9         	movff	main@nbMines+1,rempliMines@nb+1
   805  002208  EC7A  F015         	call	_rempliMines	;wreg free
   806  00220C                     
   807                           ;main.c: 92: metToucheCombien();
   808  00220C  EC05  F013         	call	_metToucheCombien	;wreg free
   809  002210                     
   810                           ;main.c: 93: afficheTabVue();
   811  002210  ECA6  F017         	call	_afficheTabVue	;wreg free
   812  002214                     l3179:
   813                           
   814                           ;main.c: 95: {;main.c: 96: deplace(&posX,&posY);
   815  002214  0EF5               	movlw	low main@posX
   816  002216  0100               	movlb	0	; force () banked
   817  002218  6FB9               	movwf	deplace@x& (0+255),b
   818  00221A  0E00               	movlw	high main@posX
   819  00221C  6FBA               	movwf	(deplace@x+1)& (0+255),b
   820  00221E  0EF4               	movlw	low main@posY
   821  002220  0100               	movlb	0	; force () banked
   822  002222  6FBB               	movwf	deplace@y& (0+255),b
   823  002224  0E00               	movlw	high main@posY
   824  002226  6FBC               	movwf	(deplace@y+1)& (0+255),b
   825  002228  ECE5  F013         	call	_deplace	;wreg free
   826  00222C                     
   827                           ;main.c: 98: if(PORTBbits.RB1)
   828  00222C  A281               	btfss	129,1,c	;volatile
   829  00222E  EF1B  F011         	goto	u3331
   830  002232  EF1D  F011         	goto	u3330
   831  002236                     u3331:
   832  002236  EF54  F011         	goto	l90
   833  00223A                     u3330:
   834  00223A                     
   835                           ;main.c: 99: {;main.c: 100: finPartie=gagne(&nbMines);
   836  00223A  0EF2               	movlw	low main@nbMines
   837  00223C  0100               	movlb	0	; force () banked
   838  00223E  6FC4               	movwf	gagne@pMines& (0+255),b
   839  002240  0E00               	movlw	high main@nbMines
   840  002242  6FC5               	movwf	(gagne@pMines+1)& (0+255),b
   841  002244  EC7C  F00E         	call	_gagne	;wreg free
   842  002248  0100               	movlb	0	; force () banked
   843  00224A  6FF1               	movwf	main@finPartie& (0+255),b
   844  00224C                     
   845                           ; BSR set to: 0
   846                           ;main.c: 101: if((!demine(posX,posY))||(finPartie==1))
   847  00224C  C0F4  F0DE         	movff	main@posY,demine@y
   848  002250  0100               	movlb	0	; force () banked
   849  002252  51F5               	movf	main@posX& (0+255),w,b
   850  002254  ECB5  F00F         	call	_demine
   851  002258  0900               	iorlw	0
   852  00225A  B4D8               	btfsc	status,2,c
   853  00225C  EF32  F011         	goto	u3341
   854  002260  EF34  F011         	goto	u3340
   855  002264                     u3341:
   856  002264  EF3D  F011         	goto	l3189
   857  002268                     u3340:
   858  002268  0100               	movlb	0	; force () banked
   859  00226A  05F1               	decf	main@finPartie& (0+255),w,b
   860  00226C  A4D8               	btfss	status,2,c
   861  00226E  EF3B  F011         	goto	u3351
   862  002272  EF3D  F011         	goto	u3350
   863  002276                     u3351:
   864  002276  EFF9  F011         	goto	l3209
   865  00227A                     u3350:
   866  00227A                     l3189:
   867                           
   868                           ;main.c: 102: {;main.c: 103: afficheTabMines();
   869  00227A  ECDD  F017         	call	_afficheTabMines	;wreg free
   870  00227E                     l94:
   871  00227E  A281               	btfss	129,1,c	;volatile
   872  002280  EF44  F011         	goto	u3361
   873  002284  EF46  F011         	goto	u3360
   874  002288                     u3361:
   875  002288  EF3F  F011         	goto	l94
   876  00228C                     u3360:
   877  00228C                     
   878                           ;main.c: 105: initTabVue();
   879  00228C  ECA8  F014         	call	_initTabVue	;wreg free
   880                           
   881                           ;main.c: 106: rempliMines(nbMines);
   882  002290  C0F2  F0C8         	movff	main@nbMines,rempliMines@nb
   883  002294  C0F3  F0C9         	movff	main@nbMines+1,rempliMines@nb+1
   884  002298  EC7A  F015         	call	_rempliMines	;wreg free
   885                           
   886                           ;main.c: 107: metToucheCombien();
   887  00229C  EC05  F013         	call	_metToucheCombien	;wreg free
   888  0022A0                     
   889                           ;main.c: 108: afficheTabVue();
   890  0022A0  ECA6  F017         	call	_afficheTabVue	;wreg free
   891  0022A4  EFF9  F011         	goto	l3209
   892  0022A8                     l90:
   893                           
   894                           ;main.c: 111: else if(!PORTBbits.RB0)
   895  0022A8  B081               	btfsc	129,0,c	;volatile
   896  0022AA  EF59  F011         	goto	u3371
   897  0022AE  EF5B  F011         	goto	u3370
   898  0022B2                     u3371:
   899  0022B2  EFF9  F011         	goto	l3209
   900  0022B6                     u3370:
   901  0022B6                     
   902                           ;main.c: 112: {;main.c: 113: if(m_tabVue[posY-1][posX-1]==1)
   903  0022B6  0100               	movlb	0	; force () banked
   904  0022B8  51F4               	movf	main@posY& (0+255),w,b
   905  0022BA  0D15               	mullw	21
   906  0022BC  0EEA               	movlw	234
   907  0022BE  0100               	movlb	0	; force () banked
   908  0022C0  6FEC               	movwf	??_main& (0+255),b
   909  0022C2  0EFF               	movlw	255
   910  0022C4  6FED               	movwf	(??_main+1)& (0+255),b
   911  0022C6  0E9C               	movlw	low _m_tabVue
   912  0022C8  6FEE               	movwf	(??_main+2)& (0+255),b
   913  0022CA  0E01               	movlw	high _m_tabVue
   914  0022CC  6FEF               	movwf	(??_main+3)& (0+255),b
   915  0022CE  51EC               	movf	??_main& (0+255),w,b
   916  0022D0  27EE               	addwf	(??_main+2)& (0+255),f,b
   917  0022D2  51ED               	movf	(??_main+1)& (0+255),w,b
   918  0022D4  23EF               	addwfc	(??_main+3)& (0+255),f,b
   919  0022D6  50F3               	movf	243,w,c
   920  0022D8  27EE               	addwf	(??_main+2)& (0+255),f,b
   921  0022DA  50F4               	movf	244,w,c
   922  0022DC  23EF               	addwfc	(??_main+3)& (0+255),f,b
   923  0022DE  0100               	movlb	0	; force () banked
   924  0022E0  51F5               	movf	main@posX& (0+255),w,b
   925  0022E2  0100               	movlb	0	; force () banked
   926  0022E4  25EE               	addwf	(??_main+2)& (0+255),w,b
   927  0022E6  6ED9               	movwf	fsr2l,c
   928  0022E8  0100               	movlb	0	; force () banked
   929  0022EA  0E00               	movlw	0
   930  0022EC  0100               	movlb	0	; force () banked
   931  0022EE  21EF               	addwfc	(??_main+3)& (0+255),w,b
   932  0022F0  6EDA               	movwf	fsr2h,c
   933  0022F2  04DE               	decf	postinc2,w,c
   934  0022F4  A4D8               	btfss	status,2,c
   935  0022F6  EF7F  F011         	goto	u3381
   936  0022FA  EF81  F011         	goto	u3380
   937  0022FE                     u3381:
   938  0022FE  EFA6  F011         	goto	l3201
   939  002302                     u3380:
   940  002302                     
   941                           ; BSR set to: 0
   942                           ;main.c: 114: {;main.c: 115: m_tabVue[posY-1][posX-1]=3;
   943  002302  0100               	movlb	0	; force () banked
   944  002304  51F4               	movf	main@posY& (0+255),w,b
   945  002306  0D15               	mullw	21
   946  002308  0EEA               	movlw	234
   947  00230A  0100               	movlb	0	; force () banked
   948  00230C  6FEC               	movwf	??_main& (0+255),b
   949  00230E  0EFF               	movlw	255
   950  002310  6FED               	movwf	(??_main+1)& (0+255),b
   951  002312  0E9C               	movlw	low _m_tabVue
   952  002314  6FEE               	movwf	(??_main+2)& (0+255),b
   953  002316  0E01               	movlw	high _m_tabVue
   954  002318  6FEF               	movwf	(??_main+3)& (0+255),b
   955  00231A  51EC               	movf	??_main& (0+255),w,b
   956  00231C  27EE               	addwf	(??_main+2)& (0+255),f,b
   957  00231E  51ED               	movf	(??_main+1)& (0+255),w,b
   958  002320  23EF               	addwfc	(??_main+3)& (0+255),f,b
   959  002322  50F3               	movf	243,w,c
   960  002324  27EE               	addwf	(??_main+2)& (0+255),f,b
   961  002326  50F4               	movf	244,w,c
   962  002328  23EF               	addwfc	(??_main+3)& (0+255),f,b
   963  00232A  0100               	movlb	0	; force () banked
   964  00232C  51F5               	movf	main@posX& (0+255),w,b
   965  00232E  0100               	movlb	0	; force () banked
   966  002330  25EE               	addwf	(??_main+2)& (0+255),w,b
   967  002332  6ED9               	movwf	fsr2l,c
   968  002334  0100               	movlb	0	; force () banked
   969  002336  0E00               	movlw	0
   970  002338  0100               	movlb	0	; force () banked
   971  00233A  21EF               	addwfc	(??_main+3)& (0+255),w,b
   972  00233C  6EDA               	movwf	fsr2h,c
   973  00233E  0E03               	movlw	3
   974  002340  6EDF               	movwf	indf2,c
   975  002342                     
   976                           ; BSR set to: 0
   977                           ;main.c: 116: lcd_ecritChar(3);
   978  002342  0E03               	movlw	3
   979  002344  EC44  F019         	call	_lcd_ecritChar
   980                           
   981                           ;main.c: 117: }
   982  002348  EFF0  F011         	goto	l3207
   983  00234C                     l3201:
   984                           
   985                           ; BSR set to: 0
   986                           ;main.c: 118: else if(m_tabVue[posY-1][posX-1]==3)
   987  00234C  0100               	movlb	0	; force () banked
   988  00234E  51F4               	movf	main@posY& (0+255),w,b
   989  002350  0D15               	mullw	21
   990  002352  0EEA               	movlw	234
   991  002354  0100               	movlb	0	; force () banked
   992  002356  6FEC               	movwf	??_main& (0+255),b
   993  002358  0EFF               	movlw	255
   994  00235A  6FED               	movwf	(??_main+1)& (0+255),b
   995  00235C  0E9C               	movlw	low _m_tabVue
   996  00235E  6FEE               	movwf	(??_main+2)& (0+255),b
   997  002360  0E01               	movlw	high _m_tabVue
   998  002362  6FEF               	movwf	(??_main+3)& (0+255),b
   999  002364  51EC               	movf	??_main& (0+255),w,b
  1000  002366  27EE               	addwf	(??_main+2)& (0+255),f,b
  1001  002368  51ED               	movf	(??_main+1)& (0+255),w,b
  1002  00236A  23EF               	addwfc	(??_main+3)& (0+255),f,b
  1003  00236C  50F3               	movf	243,w,c
  1004  00236E  27EE               	addwf	(??_main+2)& (0+255),f,b
  1005  002370  50F4               	movf	244,w,c
  1006  002372  23EF               	addwfc	(??_main+3)& (0+255),f,b
  1007  002374  0100               	movlb	0	; force () banked
  1008  002376  51F5               	movf	main@posX& (0+255),w,b
  1009  002378  0100               	movlb	0	; force () banked
  1010  00237A  25EE               	addwf	(??_main+2)& (0+255),w,b
  1011  00237C  6ED9               	movwf	fsr2l,c
  1012  00237E  0100               	movlb	0	; force () banked
  1013  002380  0E00               	movlw	0
  1014  002382  0100               	movlb	0	; force () banked
  1015  002384  21EF               	addwfc	(??_main+3)& (0+255),w,b
  1016  002386  6EDA               	movwf	fsr2h,c
  1017  002388  0E03               	movlw	3
  1018  00238A  18DE               	xorwf	postinc2,w,c
  1019  00238C  A4D8               	btfss	status,2,c
  1020  00238E  EFCB  F011         	goto	u3391
  1021  002392  EFCD  F011         	goto	u3390
  1022  002396                     u3391:
  1023  002396  EFF0  F011         	goto	l3207
  1024  00239A                     u3390:
  1025  00239A                     
  1026                           ; BSR set to: 0
  1027                           ;main.c: 119: {;main.c: 120: m_tabVue[posY-1][posX-1]=1;
  1028  00239A  0100               	movlb	0	; force () banked
  1029  00239C  51F4               	movf	main@posY& (0+255),w,b
  1030  00239E  0D15               	mullw	21
  1031  0023A0  0EEA               	movlw	234
  1032  0023A2  0100               	movlb	0	; force () banked
  1033  0023A4  6FEC               	movwf	??_main& (0+255),b
  1034  0023A6  0EFF               	movlw	255
  1035  0023A8  6FED               	movwf	(??_main+1)& (0+255),b
  1036  0023AA  0E9C               	movlw	low _m_tabVue
  1037  0023AC  6FEE               	movwf	(??_main+2)& (0+255),b
  1038  0023AE  0E01               	movlw	high _m_tabVue
  1039  0023B0  6FEF               	movwf	(??_main+3)& (0+255),b
  1040  0023B2  51EC               	movf	??_main& (0+255),w,b
  1041  0023B4  27EE               	addwf	(??_main+2)& (0+255),f,b
  1042  0023B6  51ED               	movf	(??_main+1)& (0+255),w,b
  1043  0023B8  23EF               	addwfc	(??_main+3)& (0+255),f,b
  1044  0023BA  50F3               	movf	243,w,c
  1045  0023BC  27EE               	addwf	(??_main+2)& (0+255),f,b
  1046  0023BE  50F4               	movf	244,w,c
  1047  0023C0  23EF               	addwfc	(??_main+3)& (0+255),f,b
  1048  0023C2  0100               	movlb	0	; force () banked
  1049  0023C4  51F5               	movf	main@posX& (0+255),w,b
  1050  0023C6  0100               	movlb	0	; force () banked
  1051  0023C8  25EE               	addwf	(??_main+2)& (0+255),w,b
  1052  0023CA  6ED9               	movwf	fsr2l,c
  1053  0023CC  0100               	movlb	0	; force () banked
  1054  0023CE  0E00               	movlw	0
  1055  0023D0  0100               	movlb	0	; force () banked
  1056  0023D2  21EF               	addwfc	(??_main+3)& (0+255),w,b
  1057  0023D4  6EDA               	movwf	fsr2h,c
  1058  0023D6  0E01               	movlw	1
  1059  0023D8  6EDF               	movwf	indf2,c
  1060  0023DA                     
  1061                           ; BSR set to: 0
  1062                           ;main.c: 121: lcd_ecritChar(1);
  1063  0023DA  0E01               	movlw	1
  1064  0023DC  EC44  F019         	call	_lcd_ecritChar
  1065  0023E0                     l3207:
  1066                           
  1067                           ;main.c: 122: };main.c: 123: _delay((unsigned long)((25)*(1000000/4000.0)));
  1068  0023E0  0E09               	movlw	9
  1069  0023E2  0100               	movlb	0	; force () banked
  1070  0023E4  6FEC               	movwf	??_main& (0+255),b
  1071  0023E6  0E1C               	movlw	28
  1072  0023E8                     u3407:
  1073  0023E8  2EE8               	decfsz	wreg,f,c
  1074  0023EA  D7FE               	bra	u3407
  1075  0023EC  2FEC               	decfsz	??_main& (0+255),f,b
  1076  0023EE  D7FC               	bra	u3407
  1077  0023F0  F000               	nop	
  1078  0023F2                     l3209:
  1079                           
  1080                           ;main.c: 124: };main.c: 125: _delay((unsigned long)((100)*(1000000/4000.0)));
  1081  0023F2  0E21               	movlw	33
  1082  0023F4  0100               	movlb	0	; force () banked
  1083  0023F6  6FEC               	movwf	??_main& (0+255),b
  1084  0023F8  0E76               	movlw	118
  1085  0023FA                     u3417:
  1086  0023FA  2EE8               	decfsz	wreg,f,c
  1087  0023FC  D7FE               	bra	u3417
  1088  0023FE  2FEC               	decfsz	??_main& (0+255),f,b
  1089  002400  D7FC               	bra	u3417
  1090  002402  F000               	nop	
  1091  002404  EF0A  F011         	goto	l3179
  1092  002408  EF00  F000         	goto	start
  1093  00240C                     __end_of_main:
  1094                           	opt callstack 0
  1095                           
  1096 ;; *************** function _rempliMines *****************
  1097 ;; Defined at:
  1098 ;;		line 206 in file "main.c"
  1099 ;; Parameters:    Size  Location     Type
  1100 ;;  nb              2   20[BANK0 ] int 
  1101 ;; Auto vars:     Size  Location     Type
  1102 ;;  y               1   27[BANK0 ] unsigned char 
  1103 ;;  x               1   26[BANK0 ] unsigned char 
  1104 ;;  mineReste       1   25[BANK0 ] unsigned char 
  1105 ;; Return value:  Size  Location     Type
  1106 ;;                  1    wreg      void 
  1107 ;; Registers used:
  1108 ;;		wreg, fsr2l, fsr2h, status,2, status,0, prodl, prodh, cstack
  1109 ;; Tracked objects:
  1110 ;;		On entry : 0/0
  1111 ;;		On exit  : 0/0
  1112 ;;		Unchanged: 0/0
  1113 ;; Data sizes:     COMRAM   BANK0   BANK1   BANK2   BANK3   BANK4   BANK5
  1114 ;;      Params:         0       2       0       0       0       0       0
  1115 ;;      Locals:         0       3       0       0       0       0       0
  1116 ;;      Temps:          0       3       0       0       0       0       0
  1117 ;;      Totals:         0       8       0       0       0       0       0
  1118 ;;Total ram usage:        8 bytes
  1119 ;; Hardware stack levels used:    1
  1120 ;; Hardware stack levels required when called:    2
  1121 ;; This function calls:
  1122 ;;		___awmod
  1123 ;;		_rand
  1124 ;;		_videMines
  1125 ;; This function is called by:
  1126 ;;		_main
  1127 ;; This function uses a non-reentrant model
  1128 ;;
  1129                           
  1130                           	psect	text1
  1131  002AF4                     __ptext1:
  1132                           	opt callstack 0
  1133  002AF4                     _rempliMines:
  1134                           	opt callstack 28
  1135  002AF4                     
  1136                           ;main.c: 208: unsigned char x,y;;main.c: 209: char mineReste=nb;
  1137  002AF4  C0C8  F0CD         	movff	rempliMines@nb,rempliMines@mineReste
  1138  002AF8                     
  1139                           ;main.c: 211: videMines();
  1140  002AF8  ECDF  F016         	call	_videMines	;wreg free
  1141                           
  1142                           ;main.c: 213: while(mineReste!=0)
  1143  002AFC  EFD1  F015         	goto	l2965
  1144  002B00                     l2957:
  1145                           
  1146                           ; BSR set to: 0
  1147                           ;main.c: 214: {;main.c: 215: x=rand()%4;
  1148  002B00  EC19  F019         	call	_rand	;wreg free
  1149  002B04  0100               	movlb	0	; force () banked
  1150  002B06  51C0               	movf	?_rand& (0+255),w,b
  1151  002B08  0B03               	andlw	3
  1152  002B0A  0100               	movlb	0	; force () banked
  1153  002B0C  6FCE               	movwf	rempliMines@x& (0+255),b
  1154                           
  1155                           ;main.c: 216: y=rand()%20;
  1156  002B0E  EC19  F019         	call	_rand	;wreg free
  1157  002B12  C0C0  F0C2         	movff	?_rand,___awmod@dividend
  1158  002B16  C0C1  F0C3         	movff	?_rand+1,___awmod@dividend+1
  1159  002B1A  0E00               	movlw	0
  1160  002B1C  0100               	movlb	0	; force () banked
  1161  002B1E  6FC5               	movwf	(___awmod@divisor+1)& (0+255),b
  1162  002B20  0E14               	movlw	20
  1163  002B22  6FC4               	movwf	___awmod@divisor& (0+255),b
  1164  002B24  EC35  F016         	call	___awmod	;wreg free
  1165  002B28  0100               	movlb	0	; force () banked
  1166  002B2A  51C2               	movf	?___awmod& (0+255),w,b
  1167  002B2C  0100               	movlb	0	; force () banked
  1168  002B2E  6FCF               	movwf	rempliMines@y& (0+255),b
  1169  002B30                     
  1170                           ; BSR set to: 0
  1171                           ;main.c: 217: if(m_tabMines[x][y]!=2)
  1172  002B30  0100               	movlb	0	; force () banked
  1173  002B32  51CE               	movf	rempliMines@x& (0+255),w,b
  1174  002B34  0D15               	mullw	21
  1175  002B36  0E60               	movlw	low _m_tabMines
  1176  002B38  0100               	movlb	0	; force () banked
  1177  002B3A  6FCA               	movwf	??_rempliMines& (0+255),b
  1178  002B3C  0E00               	movlw	high _m_tabMines
  1179  002B3E  6FCB               	movwf	(??_rempliMines+1)& (0+255),b
  1180  002B40  50F3               	movf	243,w,c
  1181  002B42  27CA               	addwf	??_rempliMines& (0+255),f,b
  1182  002B44  50F4               	movf	244,w,c
  1183  002B46  23CB               	addwfc	(??_rempliMines+1)& (0+255),f,b
  1184  002B48  0100               	movlb	0	; force () banked
  1185  002B4A  51CF               	movf	rempliMines@y& (0+255),w,b
  1186  002B4C  0100               	movlb	0	; force () banked
  1187  002B4E  25CA               	addwf	??_rempliMines& (0+255),w,b
  1188  002B50  6ED9               	movwf	fsr2l,c
  1189  002B52  0100               	movlb	0	; force () banked
  1190  002B54  0E00               	movlw	0
  1191  002B56  0100               	movlb	0	; force () banked
  1192  002B58  21CB               	addwfc	(??_rempliMines+1)& (0+255),w,b
  1193  002B5A  6EDA               	movwf	fsr2h,c
  1194  002B5C  0E02               	movlw	2
  1195  002B5E  18DE               	xorwf	postinc2,w,c
  1196  002B60  B4D8               	btfsc	status,2,c
  1197  002B62  EFB5  F015         	goto	u2901
  1198  002B66  EFB7  F015         	goto	u2900
  1199  002B6A                     u2901:
  1200  002B6A  EFD1  F015         	goto	l2965
  1201  002B6E                     u2900:
  1202  002B6E                     
  1203                           ; BSR set to: 0
  1204                           ;main.c: 218: {;main.c: 219: m_tabMines[x][y]=2;
  1205  002B6E  0100               	movlb	0	; force () banked
  1206  002B70  51CE               	movf	rempliMines@x& (0+255),w,b
  1207  002B72  0D15               	mullw	21
  1208  002B74  0E60               	movlw	low _m_tabMines
  1209  002B76  0100               	movlb	0	; force () banked
  1210  002B78  6FCA               	movwf	??_rempliMines& (0+255),b
  1211  002B7A  0E00               	movlw	high _m_tabMines
  1212  002B7C  6FCB               	movwf	(??_rempliMines+1)& (0+255),b
  1213  002B7E  50F3               	movf	243,w,c
  1214  002B80  27CA               	addwf	??_rempliMines& (0+255),f,b
  1215  002B82  50F4               	movf	244,w,c
  1216  002B84  23CB               	addwfc	(??_rempliMines+1)& (0+255),f,b
  1217  002B86  0100               	movlb	0	; force () banked
  1218  002B88  51CF               	movf	rempliMines@y& (0+255),w,b
  1219  002B8A  0100               	movlb	0	; force () banked
  1220  002B8C  25CA               	addwf	??_rempliMines& (0+255),w,b
  1221  002B8E  6ED9               	movwf	fsr2l,c
  1222  002B90  0100               	movlb	0	; force () banked
  1223  002B92  0E00               	movlw	0
  1224  002B94  0100               	movlb	0	; force () banked
  1225  002B96  21CB               	addwfc	(??_rempliMines+1)& (0+255),w,b
  1226  002B98  6EDA               	movwf	fsr2h,c
  1227  002B9A  0E02               	movlw	2
  1228  002B9C  6EDF               	movwf	indf2,c
  1229  002B9E                     
  1230                           ; BSR set to: 0
  1231                           ;main.c: 220: mineReste--;
  1232  002B9E  0100               	movlb	0	; force () banked
  1233  002BA0  07CD               	decf	rempliMines@mineReste& (0+255),f,b
  1234  002BA2                     l2965:
  1235  002BA2  0100               	movlb	0	; force () banked
  1236  002BA4  51CD               	movf	rempliMines@mineReste& (0+255),w,b
  1237  002BA6  A4D8               	btfss	status,2,c
  1238  002BA8  EFD8  F015         	goto	u2911
  1239  002BAC  EFDA  F015         	goto	u2910
  1240  002BB0                     u2911:
  1241  002BB0  EF80  F015         	goto	l2957
  1242  002BB4                     u2910:
  1243  002BB4                     
  1244                           ; BSR set to: 0
  1245  002BB4  0012               	return		;funcret
  1246  002BB6                     __end_of_rempliMines:
  1247                           	opt callstack 0
  1248                           
  1249 ;; *************** function _videMines *****************
  1250 ;; Defined at:
  1251 ;;		line 189 in file "main.c"
  1252 ;; Parameters:    Size  Location     Type
  1253 ;;		None
  1254 ;; Auto vars:     Size  Location     Type
  1255 ;;  j               1    3[BANK0 ] unsigned char 
  1256 ;;  i               1    2[BANK0 ] unsigned char 
  1257 ;; Return value:  Size  Location     Type
  1258 ;;                  1    wreg      void 
  1259 ;; Registers used:
  1260 ;;		wreg, fsr2l, fsr2h, status,2, status,0, prodl, prodh
  1261 ;; Tracked objects:
  1262 ;;		On entry : 0/0
  1263 ;;		On exit  : 0/0
  1264 ;;		Unchanged: 0/0
  1265 ;; Data sizes:     COMRAM   BANK0   BANK1   BANK2   BANK3   BANK4   BANK5
  1266 ;;      Params:         0       0       0       0       0       0       0
  1267 ;;      Locals:         0       2       0       0       0       0       0
  1268 ;;      Temps:          0       2       0       0       0       0       0
  1269 ;;      Totals:         0       4       0       0       0       0       0
  1270 ;;Total ram usage:        4 bytes
  1271 ;; Hardware stack levels used:    1
  1272 ;; This function calls:
  1273 ;;		Nothing
  1274 ;; This function is called by:
  1275 ;;		_rempliMines
  1276 ;; This function uses a non-reentrant model
  1277 ;;
  1278                           
  1279                           	psect	text2
  1280  002DBE                     __ptext2:
  1281                           	opt callstack 0
  1282  002DBE                     _videMines:
  1283                           	opt callstack 29
  1284  002DBE                     
  1285                           ;main.c: 191: for(unsigned char i=0;i<4;i++)
  1286  002DBE  0E00               	movlw	0
  1287  002DC0  0100               	movlb	0	; force () banked
  1288  002DC2  6FB6               	movwf	videMines@i& (0+255),b
  1289  002DC4                     
  1290                           ; BSR set to: 0
  1291  002DC4  0E03               	movlw	3
  1292  002DC6  0100               	movlb	0	; force () banked
  1293  002DC8  65B6               	cpfsgt	videMines@i& (0+255),b
  1294  002DCA  EFE9  F016         	goto	u2381
  1295  002DCE  EFEB  F016         	goto	u2380
  1296  002DD2                     u2381:
  1297  002DD2  EFED  F016         	goto	l2633
  1298  002DD6                     u2380:
  1299  002DD6  EF29  F017         	goto	l135
  1300  002DDA                     l2633:
  1301                           
  1302                           ; BSR set to: 0
  1303                           ;main.c: 192: {;main.c: 193: for(unsigned char j=0;j<20;j++)
  1304  002DDA  0E00               	movlw	0
  1305  002DDC  0100               	movlb	0	; force () banked
  1306  002DDE  6FB7               	movwf	videMines@j& (0+255),b
  1307  002DE0                     
  1308                           ; BSR set to: 0
  1309  002DE0  0E13               	movlw	19
  1310  002DE2  0100               	movlb	0	; force () banked
  1311  002DE4  65B7               	cpfsgt	videMines@j& (0+255),b
  1312  002DE6  EFF7  F016         	goto	u2391
  1313  002DEA  EFF9  F016         	goto	u2390
  1314  002DEE                     u2391:
  1315  002DEE  EFFB  F016         	goto	l2639
  1316  002DF2                     u2390:
  1317  002DF2  EF1E  F017         	goto	l2645
  1318  002DF6                     l2639:
  1319                           
  1320                           ; BSR set to: 0
  1321                           ;main.c: 194: {;main.c: 195: m_tabMines[i][j]=' ';
  1322  002DF6  0100               	movlb	0	; force () banked
  1323  002DF8  51B6               	movf	videMines@i& (0+255),w,b
  1324  002DFA  0D15               	mullw	21
  1325  002DFC  0E60               	movlw	low _m_tabMines
  1326  002DFE  0100               	movlb	0	; force () banked
  1327  002E00  6FB4               	movwf	??_videMines& (0+255),b
  1328  002E02  0E00               	movlw	high _m_tabMines
  1329  002E04  6FB5               	movwf	(??_videMines+1)& (0+255),b
  1330  002E06  50F3               	movf	243,w,c
  1331  002E08  27B4               	addwf	??_videMines& (0+255),f,b
  1332  002E0A  50F4               	movf	244,w,c
  1333  002E0C  23B5               	addwfc	(??_videMines+1)& (0+255),f,b
  1334  002E0E  0100               	movlb	0	; force () banked
  1335  002E10  51B7               	movf	videMines@j& (0+255),w,b
  1336  002E12  0100               	movlb	0	; force () banked
  1337  002E14  25B4               	addwf	??_videMines& (0+255),w,b
  1338  002E16  6ED9               	movwf	fsr2l,c
  1339  002E18  0100               	movlb	0	; force () banked
  1340  002E1A  0E00               	movlw	0
  1341  002E1C  0100               	movlb	0	; force () banked
  1342  002E1E  21B5               	addwfc	(??_videMines+1)& (0+255),w,b
  1343  002E20  6EDA               	movwf	fsr2h,c
  1344  002E22  0E20               	movlw	32
  1345  002E24  6EDF               	movwf	indf2,c
  1346  002E26                     
  1347                           ; BSR set to: 0
  1348  002E26  0100               	movlb	0	; force () banked
  1349  002E28  2BB7               	incf	videMines@j& (0+255),f,b
  1350  002E2A                     
  1351                           ; BSR set to: 0
  1352  002E2A  0E13               	movlw	19
  1353  002E2C  0100               	movlb	0	; force () banked
  1354  002E2E  65B7               	cpfsgt	videMines@j& (0+255),b
  1355  002E30  EF1C  F017         	goto	u2401
  1356  002E34  EF1E  F017         	goto	u2400
  1357  002E38                     u2401:
  1358  002E38  EFFB  F016         	goto	l2639
  1359  002E3C                     u2400:
  1360  002E3C                     l2645:
  1361                           
  1362                           ; BSR set to: 0
  1363  002E3C  0100               	movlb	0	; force () banked
  1364  002E3E  2BB6               	incf	videMines@i& (0+255),f,b
  1365  002E40                     
  1366                           ; BSR set to: 0
  1367  002E40  0E03               	movlw	3
  1368  002E42  0100               	movlb	0	; force () banked
  1369  002E44  65B6               	cpfsgt	videMines@i& (0+255),b
  1370  002E46  EF27  F017         	goto	u2411
  1371  002E4A  EF29  F017         	goto	u2410
  1372  002E4E                     u2411:
  1373  002E4E  EFED  F016         	goto	l2633
  1374  002E52                     u2410:
  1375  002E52                     l135:
  1376                           
  1377                           ; BSR set to: 0
  1378  002E52  0012               	return		;funcret
  1379  002E54                     __end_of_videMines:
  1380                           	opt callstack 0
  1381                           
  1382 ;; *************** function _rand *****************
  1383 ;; Defined at:
  1384 ;;		line 12 in file "C:\Program Files (x86)\Microchip\xc8\v2.10\pic\sources\c90\common\rand.c"
  1385 ;; Parameters:    Size  Location     Type
  1386 ;;		None
  1387 ;; Auto vars:     Size  Location     Type
  1388 ;;		None
  1389 ;; Return value:  Size  Location     Type
  1390 ;;                  2   12[BANK0 ] int 
  1391 ;; Registers used:
  1392 ;;		wreg, status,2, status,0, cstack
  1393 ;; Tracked objects:
  1394 ;;		On entry : 0/0
  1395 ;;		On exit  : 0/0
  1396 ;;		Unchanged: 0/0
  1397 ;; Data sizes:     COMRAM   BANK0   BANK1   BANK2   BANK3   BANK4   BANK5
  1398 ;;      Params:         0       2       0       0       0       0       0
  1399 ;;      Locals:         0       0       0       0       0       0       0
  1400 ;;      Temps:          0       0       0       0       0       0       0
  1401 ;;      Totals:         0       2       0       0       0       0       0
  1402 ;;Total ram usage:        2 bytes
  1403 ;; Hardware stack levels used:    1
  1404 ;; Hardware stack levels required when called:    1
  1405 ;; This function calls:
  1406 ;;		___lmul
  1407 ;; This function is called by:
  1408 ;;		_rempliMines
  1409 ;; This function uses a non-reentrant model
  1410 ;;
  1411                           
  1412                           	psect	text3
  1413  003232                     __ptext3:
  1414                           	opt callstack 0
  1415  003232                     _rand:
  1416                           	opt callstack 28
  1417  003232  C0F6  F0B4         	movff	_randx,___lmul@multiplier
  1418  003236  C0F7  F0B5         	movff	_randx+1,___lmul@multiplier+1
  1419  00323A  C0F8  F0B6         	movff	_randx+2,___lmul@multiplier+2
  1420  00323E  C0F9  F0B7         	movff	_randx+3,___lmul@multiplier+3
  1421  003242  0E6D               	movlw	109
  1422  003244  0100               	movlb	0	; () banked
  1423  003246  6FB8               	movwf	___lmul@multiplicand& (0+255),b
  1424  003248  0E4E               	movlw	78
  1425  00324A  6FB9               	movwf	(___lmul@multiplicand+1)& (0+255),b
  1426  00324C  0EC6               	movlw	198
  1427  00324E  6FBA               	movwf	(___lmul@multiplicand+2)& (0+255),b
  1428  003250  0E41               	movlw	65
  1429  003252  6FBB               	movwf	(___lmul@multiplicand+3)& (0+255),b
  1430  003254  EC14  F018         	call	___lmul	;wreg free
  1431  003258  C0B4  F0F6         	movff	?___lmul,_randx
  1432  00325C  C0B5  F0F7         	movff	?___lmul+1,_randx+1
  1433  003260  C0B6  F0F8         	movff	?___lmul+2,_randx+2
  1434  003264  C0B7  F0F9         	movff	?___lmul+3,_randx+3
  1435  003268  0E39               	movlw	57
  1436  00326A  0100               	movlb	0	; () banked
  1437  00326C  27F6               	addwf	_randx& (0+255),f,b
  1438  00326E  0E30               	movlw	48
  1439  003270  23F7               	addwfc	(_randx+1)& (0+255),f,b
  1440  003272  0E00               	movlw	0
  1441  003274  23F8               	addwfc	(_randx+2)& (0+255),f,b
  1442  003276  0E00               	movlw	0
  1443  003278  23F9               	addwfc	(_randx+3)& (0+255),f,b
  1444  00327A                     
  1445                           ; BSR set to: 0
  1446  00327A  0EFF               	movlw	255
  1447  00327C  15F8               	andwf	(_randx+2)& (0+255),w,b
  1448  00327E  6FC0               	movwf	?_rand& (0+255),b
  1449  003280  0E7F               	movlw	127
  1450  003282  15F9               	andwf	(_randx+3)& (0+255),w,b
  1451  003284  6FC1               	movwf	(?_rand+1)& (0+255),b
  1452  003286                     
  1453                           ; BSR set to: 0
  1454  003286  0012               	return		;funcret
  1455  003288                     __end_of_rand:
  1456                           	opt callstack 0
  1457                           
  1458 ;; *************** function ___lmul *****************
  1459 ;; Defined at:
  1460 ;;		line 15 in file "C:\Program Files (x86)\Microchip\xc8\v2.10\pic\sources\c90\common\Umul32.c"
  1461 ;; Parameters:    Size  Location     Type
  1462 ;;  multiplier      4    0[BANK0 ] unsigned long 
  1463 ;;  multiplicand    4    4[BANK0 ] unsigned long 
  1464 ;; Auto vars:     Size  Location     Type
  1465 ;;  product         4    8[BANK0 ] unsigned long 
  1466 ;; Return value:  Size  Location     Type
  1467 ;;                  4    0[BANK0 ] unsigned long 
  1468 ;; Registers used:
  1469 ;;		wreg, status,2, status,0
  1470 ;; Tracked objects:
  1471 ;;		On entry : 0/0
  1472 ;;		On exit  : 0/0
  1473 ;;		Unchanged: 0/0
  1474 ;; Data sizes:     COMRAM   BANK0   BANK1   BANK2   BANK3   BANK4   BANK5
  1475 ;;      Params:         0       8       0       0       0       0       0
  1476 ;;      Locals:         0       4       0       0       0       0       0
  1477 ;;      Temps:          0       0       0       0       0       0       0
  1478 ;;      Totals:         0      12       0       0       0       0       0
  1479 ;;Total ram usage:       12 bytes
  1480 ;; Hardware stack levels used:    1
  1481 ;; This function calls:
  1482 ;;		Nothing
  1483 ;; This function is called by:
  1484 ;;		_rand
  1485 ;; This function uses a non-reentrant model
  1486 ;;
  1487                           
  1488                           	psect	text4
  1489  003028                     __ptext4:
  1490                           	opt callstack 0
  1491  003028                     ___lmul:
  1492                           	opt callstack 28
  1493  003028  0E00               	movlw	0
  1494  00302A  0100               	movlb	0	; () banked
  1495  00302C  6FBC               	movwf	___lmul@product& (0+255),b
  1496  00302E  0E00               	movlw	0
  1497  003030  6FBD               	movwf	(___lmul@product+1)& (0+255),b
  1498  003032  0E00               	movlw	0
  1499  003034  6FBE               	movwf	(___lmul@product+2)& (0+255),b
  1500  003036  0E00               	movlw	0
  1501  003038  6FBF               	movwf	(___lmul@product+3)& (0+255),b
  1502  00303A                     l2617:
  1503                           
  1504                           ; BSR set to: 0
  1505  00303A  A1B4               	btfss	___lmul@multiplier& (0+255),0,b
  1506  00303C  EF22  F018         	goto	u2361
  1507  003040  EF24  F018         	goto	u2360
  1508  003044                     u2361:
  1509  003044  EF2C  F018         	goto	l2621
  1510  003048                     u2360:
  1511  003048                     
  1512                           ; BSR set to: 0
  1513  003048  51B8               	movf	___lmul@multiplicand& (0+255),w,b
  1514  00304A  27BC               	addwf	___lmul@product& (0+255),f,b
  1515  00304C  51B9               	movf	(___lmul@multiplicand+1)& (0+255),w,b
  1516  00304E  23BD               	addwfc	(___lmul@product+1)& (0+255),f,b
  1517  003050  51BA               	movf	(___lmul@multiplicand+2)& (0+255),w,b
  1518  003052  23BE               	addwfc	(___lmul@product+2)& (0+255),f,b
  1519  003054  51BB               	movf	(___lmul@multiplicand+3)& (0+255),w,b
  1520  003056  23BF               	addwfc	(___lmul@product+3)& (0+255),f,b
  1521  003058                     l2621:
  1522                           
  1523                           ; BSR set to: 0
  1524  003058  90D8               	bcf	status,0,c
  1525  00305A  37B8               	rlcf	___lmul@multiplicand& (0+255),f,b
  1526  00305C  37B9               	rlcf	(___lmul@multiplicand+1)& (0+255),f,b
  1527  00305E  37BA               	rlcf	(___lmul@multiplicand+2)& (0+255),f,b
  1528  003060  37BB               	rlcf	(___lmul@multiplicand+3)& (0+255),f,b
  1529  003062                     
  1530                           ; BSR set to: 0
  1531  003062  90D8               	bcf	status,0,c
  1532  003064  33B7               	rrcf	(___lmul@multiplier+3)& (0+255),f,b
  1533  003066  33B6               	rrcf	(___lmul@multiplier+2)& (0+255),f,b
  1534  003068  33B5               	rrcf	(___lmul@multiplier+1)& (0+255),f,b
  1535  00306A  33B4               	rrcf	___lmul@multiplier& (0+255),f,b
  1536  00306C  51B4               	movf	___lmul@multiplier& (0+255),w,b
  1537  00306E  11B5               	iorwf	(___lmul@multiplier+1)& (0+255),w,b
  1538  003070  11B6               	iorwf	(___lmul@multiplier+2)& (0+255),w,b
  1539  003072  11B7               	iorwf	(___lmul@multiplier+3)& (0+255),w,b
  1540  003074  A4D8               	btfss	status,2,c
  1541  003076  EF3F  F018         	goto	u2371
  1542  00307A  EF41  F018         	goto	u2370
  1543  00307E                     u2371:
  1544  00307E  EF1D  F018         	goto	l2617
  1545  003082                     u2370:
  1546  003082                     
  1547                           ; BSR set to: 0
  1548  003082  C0BC  F0B4         	movff	___lmul@product,?___lmul
  1549  003086  C0BD  F0B5         	movff	___lmul@product+1,?___lmul+1
  1550  00308A  C0BE  F0B6         	movff	___lmul@product+2,?___lmul+2
  1551  00308E  C0BF  F0B7         	movff	___lmul@product+3,?___lmul+3
  1552  003092                     
  1553                           ; BSR set to: 0
  1554  003092  0012               	return		;funcret
  1555  003094                     __end_of___lmul:
  1556                           	opt callstack 0
  1557                           
  1558 ;; *************** function _metToucheCombien *****************
  1559 ;; Defined at:
  1560 ;;		line 234 in file "main.c"
  1561 ;; Parameters:    Size  Location     Type
  1562 ;;		None
  1563 ;; Auto vars:     Size  Location     Type
  1564 ;;  j               1   22[BANK0 ] unsigned char 
  1565 ;;  k               1   20[BANK0 ] unsigned char 
  1566 ;;  i               1   21[BANK0 ] unsigned char 
  1567 ;;  minesTouche     1   19[BANK0 ] unsigned char 
  1568 ;; Return value:  Size  Location     Type
  1569 ;;                  1    wreg      void 
  1570 ;; Registers used:
  1571 ;;		wreg, fsr2l, fsr2h, status,2, status,0, prodl, prodh, cstack
  1572 ;; Tracked objects:
  1573 ;;		On entry : 0/0
  1574 ;;		On exit  : 0/0
  1575 ;;		Unchanged: 0/0
  1576 ;; Data sizes:     COMRAM   BANK0   BANK1   BANK2   BANK3   BANK4   BANK5
  1577 ;;      Params:         0       0       0       0       0       0       0
  1578 ;;      Locals:         0       4       0       0       0       0       0
  1579 ;;      Temps:          0       3       0       0       0       0       0
  1580 ;;      Totals:         0       7       0       0       0       0       0
  1581 ;;Total ram usage:        7 bytes
  1582 ;; Hardware stack levels used:    1
  1583 ;; Hardware stack levels required when called:    2
  1584 ;; This function calls:
  1585 ;;		_calculToucheCombien
  1586 ;; This function is called by:
  1587 ;;		_main
  1588 ;; This function uses a non-reentrant model
  1589 ;;
  1590                           
  1591                           	psect	text5
  1592  00260A                     __ptext5:
  1593                           	opt callstack 0
  1594  00260A                     _metToucheCombien:
  1595                           	opt callstack 28
  1596  00260A                     
  1597                           ;main.c: 236: char minesTouche=0;
  1598  00260A  0E00               	movlw	0
  1599  00260C  0100               	movlb	0	; force () banked
  1600  00260E  6FC7               	movwf	metToucheCombien@minesTouche& (0+255),b
  1601                           
  1602                           ;main.c: 238: for(unsigned char i=0;i<4;i++)
  1603  002610  0E00               	movlw	0
  1604  002612  0100               	movlb	0	; force () banked
  1605  002614  6FC9               	movwf	metToucheCombien@i& (0+255),b
  1606  002616                     
  1607                           ; BSR set to: 0
  1608  002616  0E03               	movlw	3
  1609  002618  0100               	movlb	0	; force () banked
  1610  00261A  65C9               	cpfsgt	metToucheCombien@i& (0+255),b
  1611  00261C  EF12  F013         	goto	u2921
  1612  002620  EF14  F013         	goto	u2920
  1613  002624                     u2921:
  1614  002624  EF16  F013         	goto	l2973
  1615  002628                     u2920:
  1616  002628  EFC0  F013         	goto	l2999
  1617  00262C                     l2973:
  1618                           
  1619                           ; BSR set to: 0
  1620                           ;main.c: 239: {;main.c: 240: for(unsigned char j=0;j<20;j++)
  1621  00262C  0E00               	movlw	0
  1622  00262E  0100               	movlb	0	; force () banked
  1623  002630  6FCA               	movwf	metToucheCombien@j& (0+255),b
  1624  002632                     
  1625                           ; BSR set to: 0
  1626  002632  0E13               	movlw	19
  1627  002634  0100               	movlb	0	; force () banked
  1628  002636  65CA               	cpfsgt	metToucheCombien@j& (0+255),b
  1629  002638  EF20  F013         	goto	u2931
  1630  00263C  EF22  F013         	goto	u2930
  1631  002640                     u2931:
  1632  002640  EF24  F013         	goto	l2979
  1633  002644                     u2930:
  1634  002644  EFB5  F013         	goto	l2995
  1635  002648                     l2979:
  1636                           
  1637                           ; BSR set to: 0
  1638                           ;main.c: 241: {;main.c: 242: minesTouche=calculToucheCombien(i,j);
  1639  002648  C0C9  F0BA         	movff	metToucheCombien@i,calculToucheCombien@ligne
  1640  00264C  0100               	movlb	0	; force () banked
  1641  00264E  6BBB               	clrf	(calculToucheCombien@ligne+1)& (0+255),b
  1642  002650  C0CA  F0BC         	movff	metToucheCombien@j,calculToucheCombien@colonne
  1643  002654  0100               	movlb	0	; force () banked
  1644  002656  6BBD               	clrf	(calculToucheCombien@colonne+1)& (0+255),b
  1645  002658  EC5D  F008         	call	_calculToucheCombien	;wreg free
  1646  00265C  0100               	movlb	0	; force () banked
  1647  00265E  6FC7               	movwf	metToucheCombien@minesTouche& (0+255),b
  1648  002660                     
  1649                           ; BSR set to: 0
  1650                           ;main.c: 243: if(minesTouche!='0'&&m_tabMines[i][j]!=2)
  1651  002660  0E30               	movlw	48
  1652  002662  0100               	movlb	0	; force () banked
  1653  002664  19C7               	xorwf	metToucheCombien@minesTouche& (0+255),w,b
  1654  002666  B4D8               	btfsc	status,2,c
  1655  002668  EF38  F013         	goto	u2941
  1656  00266C  EF3A  F013         	goto	u2940
  1657  002670                     u2941:
  1658  002670  EF73  F013         	goto	l2987
  1659  002674                     u2940:
  1660  002674                     
  1661                           ; BSR set to: 0
  1662  002674  0100               	movlb	0	; force () banked
  1663  002676  51C9               	movf	metToucheCombien@i& (0+255),w,b
  1664  002678  0D15               	mullw	21
  1665  00267A  0E60               	movlw	low _m_tabMines
  1666  00267C  0100               	movlb	0	; force () banked
  1667  00267E  6FC4               	movwf	??_metToucheCombien& (0+255),b
  1668  002680  0E00               	movlw	high _m_tabMines
  1669  002682  6FC5               	movwf	(??_metToucheCombien+1)& (0+255),b
  1670  002684  50F3               	movf	243,w,c
  1671  002686  27C4               	addwf	??_metToucheCombien& (0+255),f,b
  1672  002688  50F4               	movf	244,w,c
  1673  00268A  23C5               	addwfc	(??_metToucheCombien+1)& (0+255),f,b
  1674  00268C  0100               	movlb	0	; force () banked
  1675  00268E  51CA               	movf	metToucheCombien@j& (0+255),w,b
  1676  002690  0100               	movlb	0	; force () banked
  1677  002692  25C4               	addwf	??_metToucheCombien& (0+255),w,b
  1678  002694  6ED9               	movwf	fsr2l,c
  1679  002696  0100               	movlb	0	; force () banked
  1680  002698  0E00               	movlw	0
  1681  00269A  0100               	movlb	0	; force () banked
  1682  00269C  21C5               	addwfc	(??_metToucheCombien+1)& (0+255),w,b
  1683  00269E  6EDA               	movwf	fsr2h,c
  1684  0026A0  0E02               	movlw	2
  1685  0026A2  18DE               	xorwf	postinc2,w,c
  1686  0026A4  B4D8               	btfsc	status,2,c
  1687  0026A6  EF57  F013         	goto	u2951
  1688  0026AA  EF59  F013         	goto	u2950
  1689  0026AE                     u2951:
  1690  0026AE  EF73  F013         	goto	l2987
  1691  0026B2                     u2950:
  1692  0026B2                     
  1693                           ; BSR set to: 0
  1694                           ;main.c: 244: m_tabMines[i][j]=minesTouche;
  1695  0026B2  0100               	movlb	0	; force () banked
  1696  0026B4  51C9               	movf	metToucheCombien@i& (0+255),w,b
  1697  0026B6  0D15               	mullw	21
  1698  0026B8  0E60               	movlw	low _m_tabMines
  1699  0026BA  0100               	movlb	0	; force () banked
  1700  0026BC  6FC4               	movwf	??_metToucheCombien& (0+255),b
  1701  0026BE  0E00               	movlw	high _m_tabMines
  1702  0026C0  6FC5               	movwf	(??_metToucheCombien+1)& (0+255),b
  1703  0026C2  50F3               	movf	243,w,c
  1704  0026C4  27C4               	addwf	??_metToucheCombien& (0+255),f,b
  1705  0026C6  50F4               	movf	244,w,c
  1706  0026C8  23C5               	addwfc	(??_metToucheCombien+1)& (0+255),f,b
  1707  0026CA  0100               	movlb	0	; force () banked
  1708  0026CC  51CA               	movf	metToucheCombien@j& (0+255),w,b
  1709  0026CE  0100               	movlb	0	; force () banked
  1710  0026D0  25C4               	addwf	??_metToucheCombien& (0+255),w,b
  1711  0026D2  6ED9               	movwf	fsr2l,c
  1712  0026D4  0100               	movlb	0	; force () banked
  1713  0026D6  0E00               	movlw	0
  1714  0026D8  0100               	movlb	0	; force () banked
  1715  0026DA  21C5               	addwfc	(??_metToucheCombien+1)& (0+255),w,b
  1716  0026DC  6EDA               	movwf	fsr2h,c
  1717  0026DE  C0C7  FFDF         	movff	metToucheCombien@minesTouche,indf2
  1718  0026E2  EFAA  F013         	goto	l2991
  1719  0026E6                     l2987:
  1720                           
  1721                           ; BSR set to: 0
  1722                           ;main.c: 245: else if(m_tabMines[i][j]!=2)
  1723  0026E6  0100               	movlb	0	; force () banked
  1724  0026E8  51C9               	movf	metToucheCombien@i& (0+255),w,b
  1725  0026EA  0D15               	mullw	21
  1726  0026EC  0E60               	movlw	low _m_tabMines
  1727  0026EE  0100               	movlb	0	; force () banked
  1728  0026F0  6FC4               	movwf	??_metToucheCombien& (0+255),b
  1729  0026F2  0E00               	movlw	high _m_tabMines
  1730  0026F4  6FC5               	movwf	(??_metToucheCombien+1)& (0+255),b
  1731  0026F6  50F3               	movf	243,w,c
  1732  0026F8  27C4               	addwf	??_metToucheCombien& (0+255),f,b
  1733  0026FA  50F4               	movf	244,w,c
  1734  0026FC  23C5               	addwfc	(??_metToucheCombien+1)& (0+255),f,b
  1735  0026FE  0100               	movlb	0	; force () banked
  1736  002700  51CA               	movf	metToucheCombien@j& (0+255),w,b
  1737  002702  0100               	movlb	0	; force () banked
  1738  002704  25C4               	addwf	??_metToucheCombien& (0+255),w,b
  1739  002706  6ED9               	movwf	fsr2l,c
  1740  002708  0100               	movlb	0	; force () banked
  1741  00270A  0E00               	movlw	0
  1742  00270C  0100               	movlb	0	; force () banked
  1743  00270E  21C5               	addwfc	(??_metToucheCombien+1)& (0+255),w,b
  1744  002710  6EDA               	movwf	fsr2h,c
  1745  002712  0E02               	movlw	2
  1746  002714  18DE               	xorwf	postinc2,w,c
  1747  002716  B4D8               	btfsc	status,2,c
  1748  002718  EF90  F013         	goto	u2961
  1749  00271C  EF92  F013         	goto	u2960
  1750  002720                     u2961:
  1751  002720  EFAA  F013         	goto	l2991
  1752  002724                     u2960:
  1753  002724                     
  1754                           ; BSR set to: 0
  1755                           ;main.c: 246: m_tabMines[i][j]=' ';
  1756  002724  0100               	movlb	0	; force () banked
  1757  002726  51C9               	movf	metToucheCombien@i& (0+255),w,b
  1758  002728  0D15               	mullw	21
  1759  00272A  0E60               	movlw	low _m_tabMines
  1760  00272C  0100               	movlb	0	; force () banked
  1761  00272E  6FC4               	movwf	??_metToucheCombien& (0+255),b
  1762  002730  0E00               	movlw	high _m_tabMines
  1763  002732  6FC5               	movwf	(??_metToucheCombien+1)& (0+255),b
  1764  002734  50F3               	movf	243,w,c
  1765  002736  27C4               	addwf	??_metToucheCombien& (0+255),f,b
  1766  002738  50F4               	movf	244,w,c
  1767  00273A  23C5               	addwfc	(??_metToucheCombien+1)& (0+255),f,b
  1768  00273C  0100               	movlb	0	; force () banked
  1769  00273E  51CA               	movf	metToucheCombien@j& (0+255),w,b
  1770  002740  0100               	movlb	0	; force () banked
  1771  002742  25C4               	addwf	??_metToucheCombien& (0+255),w,b
  1772  002744  6ED9               	movwf	fsr2l,c
  1773  002746  0100               	movlb	0	; force () banked
  1774  002748  0E00               	movlw	0
  1775  00274A  0100               	movlb	0	; force () banked
  1776  00274C  21C5               	addwfc	(??_metToucheCombien+1)& (0+255),w,b
  1777  00274E  6EDA               	movwf	fsr2h,c
  1778  002750  0E20               	movlw	32
  1779  002752  6EDF               	movwf	indf2,c
  1780  002754                     l2991:
  1781                           
  1782                           ; BSR set to: 0
  1783  002754  0100               	movlb	0	; force () banked
  1784  002756  2BCA               	incf	metToucheCombien@j& (0+255),f,b
  1785  002758                     
  1786                           ; BSR set to: 0
  1787  002758  0E13               	movlw	19
  1788  00275A  0100               	movlb	0	; force () banked
  1789  00275C  65CA               	cpfsgt	metToucheCombien@j& (0+255),b
  1790  00275E  EFB3  F013         	goto	u2971
  1791  002762  EFB5  F013         	goto	u2970
  1792  002766                     u2971:
  1793  002766  EF24  F013         	goto	l2979
  1794  00276A                     u2970:
  1795  00276A                     l2995:
  1796                           
  1797                           ; BSR set to: 0
  1798  00276A  0100               	movlb	0	; force () banked
  1799  00276C  2BC9               	incf	metToucheCombien@i& (0+255),f,b
  1800  00276E                     
  1801                           ; BSR set to: 0
  1802  00276E  0E03               	movlw	3
  1803  002770  0100               	movlb	0	; force () banked
  1804  002772  65C9               	cpfsgt	metToucheCombien@i& (0+255),b
  1805  002774  EFBE  F013         	goto	u2981
  1806  002778  EFC0  F013         	goto	u2980
  1807  00277C                     u2981:
  1808  00277C  EF16  F013         	goto	l2973
  1809  002780                     u2980:
  1810  002780                     l2999:
  1811                           
  1812                           ; BSR set to: 0
  1813                           ;main.c: 247: };main.c: 248: };main.c: 249: for(unsigned char k=0;k<4;k++)
  1814  002780  0E00               	movlw	0
  1815  002782  0100               	movlb	0	; force () banked
  1816  002784  6FC8               	movwf	metToucheCombien@k& (0+255),b
  1817  002786                     
  1818                           ; BSR set to: 0
  1819  002786  0E03               	movlw	3
  1820  002788  0100               	movlb	0	; force () banked
  1821  00278A  65C8               	cpfsgt	metToucheCombien@k& (0+255),b
  1822  00278C  EFCA  F013         	goto	u2991
  1823  002790  EFCC  F013         	goto	u2990
  1824  002794                     u2991:
  1825  002794  EFCE  F013         	goto	l3005
  1826  002798                     u2990:
  1827  002798  EFE4  F013         	goto	l154
  1828  00279C                     l3005:
  1829                           
  1830                           ; BSR set to: 0
  1831                           ;main.c: 250: {;main.c: 251: m_tabMines[k][20]='\0';
  1832  00279C  0100               	movlb	0	; force () banked
  1833  00279E  51C8               	movf	metToucheCombien@k& (0+255),w,b
  1834  0027A0  0D15               	mullw	21
  1835  0027A2  0E74               	movlw	low (_m_tabMines+20)
  1836  0027A4  24F3               	addwf	243,w,c
  1837  0027A6  6ED9               	movwf	fsr2l,c
  1838  0027A8  0E00               	movlw	high (_m_tabMines+20)
  1839  0027AA  20F4               	addwfc	prodh,w,c
  1840  0027AC  6EDA               	movwf	fsr2h,c
  1841  0027AE  0E00               	movlw	0
  1842  0027B0  6EDF               	movwf	indf2,c
  1843  0027B2                     
  1844                           ; BSR set to: 0
  1845  0027B2  0100               	movlb	0	; force () banked
  1846  0027B4  2BC8               	incf	metToucheCombien@k& (0+255),f,b
  1847  0027B6                     
  1848                           ; BSR set to: 0
  1849  0027B6  0E03               	movlw	3
  1850  0027B8  0100               	movlb	0	; force () banked
  1851  0027BA  65C8               	cpfsgt	metToucheCombien@k& (0+255),b
  1852  0027BC  EFE2  F013         	goto	u3001
  1853  0027C0  EFE4  F013         	goto	u3000
  1854  0027C4                     u3001:
  1855  0027C4  EFCE  F013         	goto	l3005
  1856  0027C8                     u3000:
  1857  0027C8                     l154:
  1858                           
  1859                           ; BSR set to: 0
  1860  0027C8  0012               	return		;funcret
  1861  0027CA                     __end_of_metToucheCombien:
  1862                           	opt callstack 0
  1863                           
  1864 ;; *************** function _calculToucheCombien *****************
  1865 ;; Defined at:
  1866 ;;		line 260 in file "main.c"
  1867 ;; Parameters:    Size  Location     Type
  1868 ;;  ligne           2    6[BANK0 ] int 
  1869 ;;  colonne         2    8[BANK0 ] int 
  1870 ;; Auto vars:     Size  Location     Type
  1871 ;;  nombreTouche    1   15[BANK0 ] unsigned char 
  1872 ;; Return value:  Size  Location     Type
  1873 ;;                  1    wreg      unsigned char 
  1874 ;; Registers used:
  1875 ;;		wreg, fsr2l, fsr2h, status,2, status,0, prodl, prodh, cstack
  1876 ;; Tracked objects:
  1877 ;;		On entry : 0/0
  1878 ;;		On exit  : 0/0
  1879 ;;		Unchanged: 0/0
  1880 ;; Data sizes:     COMRAM   BANK0   BANK1   BANK2   BANK3   BANK4   BANK5
  1881 ;;      Params:         0       4       0       0       0       0       0
  1882 ;;      Locals:         0       1       0       0       0       0       0
  1883 ;;      Temps:          0       5       0       0       0       0       0
  1884 ;;      Totals:         0      10       0       0       0       0       0
  1885 ;;Total ram usage:       10 bytes
  1886 ;; Hardware stack levels used:    1
  1887 ;; Hardware stack levels required when called:    1
  1888 ;; This function calls:
  1889 ;;		___wmul
  1890 ;; This function is called by:
  1891 ;;		_metToucheCombien
  1892 ;; This function uses a non-reentrant model
  1893 ;;
  1894                           
  1895                           	psect	text6
  1896  0010BA                     __ptext6:
  1897                           	opt callstack 0
  1898  0010BA                     _calculToucheCombien:
  1899                           	opt callstack 28
  1900  0010BA                     
  1901                           ;main.c: 262: char nombreTouche='0';
  1902  0010BA  0E30               	movlw	48
  1903  0010BC  0100               	movlb	0	; force () banked
  1904  0010BE  6FC3               	movwf	calculToucheCombien@nombreTouche& (0+255),b
  1905  0010C0                     
  1906                           ; BSR set to: 0
  1907                           ;main.c: 263: if(m_tabMines[ligne][colonne]!=2)
  1908  0010C0  C0BA  F0B4         	movff	calculToucheCombien@ligne,___wmul@multiplier
  1909  0010C4  C0BB  F0B5         	movff	calculToucheCombien@ligne+1,___wmul@multiplier+1
  1910  0010C8  0E00               	movlw	0
  1911  0010CA  0100               	movlb	0	; force () banked
  1912  0010CC  6FB7               	movwf	(___wmul@multiplicand+1)& (0+255),b
  1913  0010CE  0E15               	movlw	21
  1914  0010D0  6FB6               	movwf	___wmul@multiplicand& (0+255),b
  1915  0010D2  EC0D  F01A         	call	___wmul	;wreg free
  1916  0010D6  0E60               	movlw	low _m_tabMines
  1917  0010D8  0100               	movlb	0	; force () banked
  1918  0010DA  6FBE               	movwf	??_calculToucheCombien& (0+255),b
  1919  0010DC  0E00               	movlw	high _m_tabMines
  1920  0010DE  6FBF               	movwf	(??_calculToucheCombien+1)& (0+255),b
  1921  0010E0  0100               	movlb	0	; force () banked
  1922  0010E2  51B4               	movf	?___wmul& (0+255),w,b
  1923  0010E4  0100               	movlb	0	; force () banked
  1924  0010E6  27BE               	addwf	??_calculToucheCombien& (0+255),f,b
  1925  0010E8  0100               	movlb	0	; force () banked
  1926  0010EA  51B5               	movf	(?___wmul+1)& (0+255),w,b
  1927  0010EC  0100               	movlb	0	; force () banked
  1928  0010EE  23BF               	addwfc	(??_calculToucheCombien+1)& (0+255),f,b
  1929  0010F0  0100               	movlb	0	; force () banked
  1930  0010F2  51BC               	movf	calculToucheCombien@colonne& (0+255),w,b
  1931  0010F4  0100               	movlb	0	; force () banked
  1932  0010F6  25BE               	addwf	??_calculToucheCombien& (0+255),w,b
  1933  0010F8  6ED9               	movwf	fsr2l,c
  1934  0010FA  0100               	movlb	0	; force () banked
  1935  0010FC  51BD               	movf	(calculToucheCombien@colonne+1)& (0+255),w,b
  1936  0010FE  0100               	movlb	0	; force () banked
  1937  001100  21BF               	addwfc	(??_calculToucheCombien+1)& (0+255),w,b
  1938  001102  6EDA               	movwf	fsr2h,c
  1939  001104  0E02               	movlw	2
  1940  001106  18DE               	xorwf	postinc2,w,c
  1941  001108  B4D8               	btfsc	status,2,c
  1942  00110A  EF89  F008         	goto	u2421
  1943  00110E  EF8B  F008         	goto	u2420
  1944  001112                     u2421:
  1945  001112  EFA1  F00A         	goto	l2717
  1946  001116                     u2420:
  1947  001116                     
  1948                           ; BSR set to: 0
  1949                           ;main.c: 264: {;main.c: 265: if(ligne!=3)
  1950  001116  0E03               	movlw	3
  1951  001118  0100               	movlb	0	; force () banked
  1952  00111A  19BA               	xorwf	calculToucheCombien@ligne& (0+255),w,b
  1953  00111C  11BB               	iorwf	(calculToucheCombien@ligne+1)& (0+255),w,b
  1954  00111E  B4D8               	btfsc	status,2,c
  1955  001120  EF94  F008         	goto	u2431
  1956  001124  EF96  F008         	goto	u2430
  1957  001128                     u2431:
  1958  001128  EFC7  F008         	goto	l2667
  1959  00112C                     u2430:
  1960  00112C                     
  1961                           ; BSR set to: 0
  1962                           ;main.c: 266: {;main.c: 267: if(m_tabMines[ligne+1][colonne]==2)
  1963  00112C  C0BA  F0B4         	movff	calculToucheCombien@ligne,___wmul@multiplier
  1964  001130  C0BB  F0B5         	movff	calculToucheCombien@ligne+1,___wmul@multiplier+1
  1965  001134  0E00               	movlw	0
  1966  001136  0100               	movlb	0	; force () banked
  1967  001138  6FB7               	movwf	(___wmul@multiplicand+1)& (0+255),b
  1968  00113A  0E15               	movlw	21
  1969  00113C  6FB6               	movwf	___wmul@multiplicand& (0+255),b
  1970  00113E  EC0D  F01A         	call	___wmul	;wreg free
  1971  001142  0E60               	movlw	low _m_tabMines
  1972  001144  0100               	movlb	0	; force () banked
  1973  001146  6FBE               	movwf	??_calculToucheCombien& (0+255),b
  1974  001148  0E00               	movlw	high _m_tabMines
  1975  00114A  6FBF               	movwf	(??_calculToucheCombien+1)& (0+255),b
  1976  00114C  0E15               	movlw	21
  1977  00114E  27BE               	addwf	??_calculToucheCombien& (0+255),f,b
  1978  001150  0E00               	movlw	0
  1979  001152  23BF               	addwfc	(??_calculToucheCombien+1)& (0+255),f,b
  1980  001154  0100               	movlb	0	; force () banked
  1981  001156  51B4               	movf	?___wmul& (0+255),w,b
  1982  001158  0100               	movlb	0	; force () banked
  1983  00115A  27BE               	addwf	??_calculToucheCombien& (0+255),f,b
  1984  00115C  0100               	movlb	0	; force () banked
  1985  00115E  51B5               	movf	(?___wmul+1)& (0+255),w,b
  1986  001160  0100               	movlb	0	; force () banked
  1987  001162  23BF               	addwfc	(??_calculToucheCombien+1)& (0+255),f,b
  1988  001164  0100               	movlb	0	; force () banked
  1989  001166  51BC               	movf	calculToucheCombien@colonne& (0+255),w,b
  1990  001168  0100               	movlb	0	; force () banked
  1991  00116A  25BE               	addwf	??_calculToucheCombien& (0+255),w,b
  1992  00116C  6ED9               	movwf	fsr2l,c
  1993  00116E  0100               	movlb	0	; force () banked
  1994  001170  51BD               	movf	(calculToucheCombien@colonne+1)& (0+255),w,b
  1995  001172  0100               	movlb	0	; force () banked
  1996  001174  21BF               	addwfc	(??_calculToucheCombien+1)& (0+255),w,b
  1997  001176  6EDA               	movwf	fsr2h,c
  1998  001178  0E02               	movlw	2
  1999  00117A  18DE               	xorwf	postinc2,w,c
  2000  00117C  A4D8               	btfss	status,2,c
  2001  00117E  EFC3  F008         	goto	u2441
  2002  001182  EFC5  F008         	goto	u2440
  2003  001186                     u2441:
  2004  001186  EFC7  F008         	goto	l2667
  2005  00118A                     u2440:
  2006  00118A                     
  2007                           ; BSR set to: 0
  2008                           ;main.c: 268: nombreTouche++;
  2009  00118A  0100               	movlb	0	; force () banked
  2010  00118C  2BC3               	incf	calculToucheCombien@nombreTouche& (0+255),f,b
  2011  00118E                     l2667:
  2012                           
  2013                           ; BSR set to: 0
  2014                           ;main.c: 269: };main.c: 270: if(ligne!=0)
  2015  00118E  0100               	movlb	0	; force () banked
  2016  001190  51BA               	movf	calculToucheCombien@ligne& (0+255),w,b
  2017  001192  11BB               	iorwf	(calculToucheCombien@ligne+1)& (0+255),w,b
  2018  001194  B4D8               	btfsc	status,2,c
  2019  001196  EFCF  F008         	goto	u2451
  2020  00119A  EFD1  F008         	goto	u2450
  2021  00119E                     u2451:
  2022  00119E  EF06  F009         	goto	l2673
  2023  0011A2                     u2450:
  2024  0011A2                     
  2025                           ; BSR set to: 0
  2026                           ;main.c: 271: {;main.c: 272: if(m_tabMines[ligne-1][colonne]==2)
  2027  0011A2  C0BA  F0B4         	movff	calculToucheCombien@ligne,___wmul@multiplier
  2028  0011A6  C0BB  F0B5         	movff	calculToucheCombien@ligne+1,___wmul@multiplier+1
  2029  0011AA  0E00               	movlw	0
  2030  0011AC  0100               	movlb	0	; force () banked
  2031  0011AE  6FB7               	movwf	(___wmul@multiplicand+1)& (0+255),b
  2032  0011B0  0E15               	movlw	21
  2033  0011B2  6FB6               	movwf	___wmul@multiplicand& (0+255),b
  2034  0011B4  EC0D  F01A         	call	___wmul	;wreg free
  2035  0011B8  0EEB               	movlw	235
  2036  0011BA  0100               	movlb	0	; force () banked
  2037  0011BC  6FBE               	movwf	??_calculToucheCombien& (0+255),b
  2038  0011BE  0EFF               	movlw	255
  2039  0011C0  6FBF               	movwf	(??_calculToucheCombien+1)& (0+255),b
  2040  0011C2  0E60               	movlw	low _m_tabMines
  2041  0011C4  6FC0               	movwf	(??_calculToucheCombien+2)& (0+255),b
  2042  0011C6  0E00               	movlw	high _m_tabMines
  2043  0011C8  6FC1               	movwf	(??_calculToucheCombien+3)& (0+255),b
  2044  0011CA  51BE               	movf	??_calculToucheCombien& (0+255),w,b
  2045  0011CC  27C0               	addwf	(??_calculToucheCombien+2)& (0+255),f,b
  2046  0011CE  51BF               	movf	(??_calculToucheCombien+1)& (0+255),w,b
  2047  0011D0  23C1               	addwfc	(??_calculToucheCombien+3)& (0+255),f,b
  2048  0011D2  0100               	movlb	0	; force () banked
  2049  0011D4  51B4               	movf	?___wmul& (0+255),w,b
  2050  0011D6  0100               	movlb	0	; force () banked
  2051  0011D8  27C0               	addwf	(??_calculToucheCombien+2)& (0+255),f,b
  2052  0011DA  0100               	movlb	0	; force () banked
  2053  0011DC  51B5               	movf	(?___wmul+1)& (0+255),w,b
  2054  0011DE  0100               	movlb	0	; force () banked
  2055  0011E0  23C1               	addwfc	(??_calculToucheCombien+3)& (0+255),f,b
  2056  0011E2  0100               	movlb	0	; force () banked
  2057  0011E4  51BC               	movf	calculToucheCombien@colonne& (0+255),w,b
  2058  0011E6  0100               	movlb	0	; force () banked
  2059  0011E8  25C0               	addwf	(??_calculToucheCombien+2)& (0+255),w,b
  2060  0011EA  6ED9               	movwf	fsr2l,c
  2061  0011EC  0100               	movlb	0	; force () banked
  2062  0011EE  51BD               	movf	(calculToucheCombien@colonne+1)& (0+255),w,b
  2063  0011F0  0100               	movlb	0	; force () banked
  2064  0011F2  21C1               	addwfc	(??_calculToucheCombien+3)& (0+255),w,b
  2065  0011F4  6EDA               	movwf	fsr2h,c
  2066  0011F6  0E02               	movlw	2
  2067  0011F8  18DE               	xorwf	postinc2,w,c
  2068  0011FA  A4D8               	btfss	status,2,c
  2069  0011FC  EF02  F009         	goto	u2461
  2070  001200  EF04  F009         	goto	u2460
  2071  001204                     u2461:
  2072  001204  EF06  F009         	goto	l2673
  2073  001208                     u2460:
  2074  001208                     
  2075                           ; BSR set to: 0
  2076                           ;main.c: 273: nombreTouche++;
  2077  001208  0100               	movlb	0	; force () banked
  2078  00120A  2BC3               	incf	calculToucheCombien@nombreTouche& (0+255),f,b
  2079  00120C                     l2673:
  2080                           
  2081                           ; BSR set to: 0
  2082                           ;main.c: 274: };main.c: 275: if(ligne!=3&&colonne!=0)
  2083  00120C  0E03               	movlw	3
  2084  00120E  0100               	movlb	0	; force () banked
  2085  001210  19BA               	xorwf	calculToucheCombien@ligne& (0+255),w,b
  2086  001212  11BB               	iorwf	(calculToucheCombien@ligne+1)& (0+255),w,b
  2087  001214  B4D8               	btfsc	status,2,c
  2088  001216  EF0F  F009         	goto	u2471
  2089  00121A  EF11  F009         	goto	u2470
  2090  00121E                     u2471:
  2091  00121E  EF4C  F009         	goto	l2681
  2092  001222                     u2470:
  2093  001222                     
  2094                           ; BSR set to: 0
  2095  001222  0100               	movlb	0	; force () banked
  2096  001224  51BC               	movf	calculToucheCombien@colonne& (0+255),w,b
  2097  001226  11BD               	iorwf	(calculToucheCombien@colonne+1)& (0+255),w,b
  2098  001228  B4D8               	btfsc	status,2,c
  2099  00122A  EF19  F009         	goto	u2481
  2100  00122E  EF1B  F009         	goto	u2480
  2101  001232                     u2481:
  2102  001232  EF4C  F009         	goto	l2681
  2103  001236                     u2480:
  2104  001236                     
  2105                           ; BSR set to: 0
  2106                           ;main.c: 276: {;main.c: 277: if(m_tabMines[ligne+1][colonne-1]==2)
  2107  001236  C0BA  F0B4         	movff	calculToucheCombien@ligne,___wmul@multiplier
  2108  00123A  C0BB  F0B5         	movff	calculToucheCombien@ligne+1,___wmul@multiplier+1
  2109  00123E  0E00               	movlw	0
  2110  001240  0100               	movlb	0	; force () banked
  2111  001242  6FB7               	movwf	(___wmul@multiplicand+1)& (0+255),b
  2112  001244  0E15               	movlw	21
  2113  001246  6FB6               	movwf	___wmul@multiplicand& (0+255),b
  2114  001248  EC0D  F01A         	call	___wmul	;wreg free
  2115  00124C  0E60               	movlw	low _m_tabMines
  2116  00124E  0100               	movlb	0	; force () banked
  2117  001250  6FBE               	movwf	??_calculToucheCombien& (0+255),b
  2118  001252  0E00               	movlw	high _m_tabMines
  2119  001254  6FBF               	movwf	(??_calculToucheCombien+1)& (0+255),b
  2120  001256  0E14               	movlw	20
  2121  001258  27BE               	addwf	??_calculToucheCombien& (0+255),f,b
  2122  00125A  0E00               	movlw	0
  2123  00125C  23BF               	addwfc	(??_calculToucheCombien+1)& (0+255),f,b
  2124  00125E  0100               	movlb	0	; force () banked
  2125  001260  51B4               	movf	?___wmul& (0+255),w,b
  2126  001262  0100               	movlb	0	; force () banked
  2127  001264  27BE               	addwf	??_calculToucheCombien& (0+255),f,b
  2128  001266  0100               	movlb	0	; force () banked
  2129  001268  51B5               	movf	(?___wmul+1)& (0+255),w,b
  2130  00126A  0100               	movlb	0	; force () banked
  2131  00126C  23BF               	addwfc	(??_calculToucheCombien+1)& (0+255),f,b
  2132  00126E  0100               	movlb	0	; force () banked
  2133  001270  51BC               	movf	calculToucheCombien@colonne& (0+255),w,b
  2134  001272  0100               	movlb	0	; force () banked
  2135  001274  25BE               	addwf	??_calculToucheCombien& (0+255),w,b
  2136  001276  6ED9               	movwf	fsr2l,c
  2137  001278  0100               	movlb	0	; force () banked
  2138  00127A  51BD               	movf	(calculToucheCombien@colonne+1)& (0+255),w,b
  2139  00127C  0100               	movlb	0	; force () banked
  2140  00127E  21BF               	addwfc	(??_calculToucheCombien+1)& (0+255),w,b
  2141  001280  6EDA               	movwf	fsr2h,c
  2142  001282  0E02               	movlw	2
  2143  001284  18DE               	xorwf	postinc2,w,c
  2144  001286  A4D8               	btfss	status,2,c
  2145  001288  EF48  F009         	goto	u2491
  2146  00128C  EF4A  F009         	goto	u2490
  2147  001290                     u2491:
  2148  001290  EF4C  F009         	goto	l2681
  2149  001294                     u2490:
  2150  001294                     
  2151                           ; BSR set to: 0
  2152                           ;main.c: 278: nombreTouche++;
  2153  001294  0100               	movlb	0	; force () banked
  2154  001296  2BC3               	incf	calculToucheCombien@nombreTouche& (0+255),f,b
  2155  001298                     l2681:
  2156                           
  2157                           ; BSR set to: 0
  2158                           ;main.c: 279: };main.c: 280: if(ligne!=3&&colonne!=19)
  2159  001298  0E03               	movlw	3
  2160  00129A  0100               	movlb	0	; force () banked
  2161  00129C  19BA               	xorwf	calculToucheCombien@ligne& (0+255),w,b
  2162  00129E  11BB               	iorwf	(calculToucheCombien@ligne+1)& (0+255),w,b
  2163  0012A0  B4D8               	btfsc	status,2,c
  2164  0012A2  EF55  F009         	goto	u2501
  2165  0012A6  EF57  F009         	goto	u2500
  2166  0012AA                     u2501:
  2167  0012AA  EF93  F009         	goto	l2689
  2168  0012AE                     u2500:
  2169  0012AE                     
  2170                           ; BSR set to: 0
  2171  0012AE  0E13               	movlw	19
  2172  0012B0  0100               	movlb	0	; force () banked
  2173  0012B2  19BC               	xorwf	calculToucheCombien@colonne& (0+255),w,b
  2174  0012B4  11BD               	iorwf	(calculToucheCombien@colonne+1)& (0+255),w,b
  2175  0012B6  B4D8               	btfsc	status,2,c
  2176  0012B8  EF60  F009         	goto	u2511
  2177  0012BC  EF62  F009         	goto	u2510
  2178  0012C0                     u2511:
  2179  0012C0  EF93  F009         	goto	l2689
  2180  0012C4                     u2510:
  2181  0012C4                     
  2182                           ; BSR set to: 0
  2183                           ;main.c: 281: {;main.c: 282: if(m_tabMines[ligne+1][colonne+1]==2)
  2184  0012C4  C0BA  F0B4         	movff	calculToucheCombien@ligne,___wmul@multiplier
  2185  0012C8  C0BB  F0B5         	movff	calculToucheCombien@ligne+1,___wmul@multiplier+1
  2186  0012CC  0E00               	movlw	0
  2187  0012CE  0100               	movlb	0	; force () banked
  2188  0012D0  6FB7               	movwf	(___wmul@multiplicand+1)& (0+255),b
  2189  0012D2  0E15               	movlw	21
  2190  0012D4  6FB6               	movwf	___wmul@multiplicand& (0+255),b
  2191  0012D6  EC0D  F01A         	call	___wmul	;wreg free
  2192  0012DA  0E60               	movlw	low _m_tabMines
  2193  0012DC  0100               	movlb	0	; force () banked
  2194  0012DE  6FBE               	movwf	??_calculToucheCombien& (0+255),b
  2195  0012E0  0E00               	movlw	high _m_tabMines
  2196  0012E2  6FBF               	movwf	(??_calculToucheCombien+1)& (0+255),b
  2197  0012E4  0E16               	movlw	22
  2198  0012E6  27BE               	addwf	??_calculToucheCombien& (0+255),f,b
  2199  0012E8  0E00               	movlw	0
  2200  0012EA  23BF               	addwfc	(??_calculToucheCombien+1)& (0+255),f,b
  2201  0012EC  0100               	movlb	0	; force () banked
  2202  0012EE  51B4               	movf	?___wmul& (0+255),w,b
  2203  0012F0  0100               	movlb	0	; force () banked
  2204  0012F2  27BE               	addwf	??_calculToucheCombien& (0+255),f,b
  2205  0012F4  0100               	movlb	0	; force () banked
  2206  0012F6  51B5               	movf	(?___wmul+1)& (0+255),w,b
  2207  0012F8  0100               	movlb	0	; force () banked
  2208  0012FA  23BF               	addwfc	(??_calculToucheCombien+1)& (0+255),f,b
  2209  0012FC  0100               	movlb	0	; force () banked
  2210  0012FE  51BC               	movf	calculToucheCombien@colonne& (0+255),w,b
  2211  001300  0100               	movlb	0	; force () banked
  2212  001302  25BE               	addwf	??_calculToucheCombien& (0+255),w,b
  2213  001304  6ED9               	movwf	fsr2l,c
  2214  001306  0100               	movlb	0	; force () banked
  2215  001308  51BD               	movf	(calculToucheCombien@colonne+1)& (0+255),w,b
  2216  00130A  0100               	movlb	0	; force () banked
  2217  00130C  21BF               	addwfc	(??_calculToucheCombien+1)& (0+255),w,b
  2218  00130E  6EDA               	movwf	fsr2h,c
  2219  001310  0E02               	movlw	2
  2220  001312  18DE               	xorwf	postinc2,w,c
  2221  001314  A4D8               	btfss	status,2,c
  2222  001316  EF8F  F009         	goto	u2521
  2223  00131A  EF91  F009         	goto	u2520
  2224  00131E                     u2521:
  2225  00131E  EF93  F009         	goto	l2689
  2226  001322                     u2520:
  2227  001322                     
  2228                           ; BSR set to: 0
  2229                           ;main.c: 283: nombreTouche++;
  2230  001322  0100               	movlb	0	; force () banked
  2231  001324  2BC3               	incf	calculToucheCombien@nombreTouche& (0+255),f,b
  2232  001326                     l2689:
  2233                           
  2234                           ; BSR set to: 0
  2235                           ;main.c: 284: };main.c: 285: if(ligne!=0&&colonne!=0)
  2236  001326  0100               	movlb	0	; force () banked
  2237  001328  51BA               	movf	calculToucheCombien@ligne& (0+255),w,b
  2238  00132A  11BB               	iorwf	(calculToucheCombien@ligne+1)& (0+255),w,b
  2239  00132C  B4D8               	btfsc	status,2,c
  2240  00132E  EF9B  F009         	goto	u2531
  2241  001332  EF9D  F009         	goto	u2530
  2242  001336                     u2531:
  2243  001336  EFDC  F009         	goto	l2697
  2244  00133A                     u2530:
  2245  00133A                     
  2246                           ; BSR set to: 0
  2247  00133A  0100               	movlb	0	; force () banked
  2248  00133C  51BC               	movf	calculToucheCombien@colonne& (0+255),w,b
  2249  00133E  11BD               	iorwf	(calculToucheCombien@colonne+1)& (0+255),w,b
  2250  001340  B4D8               	btfsc	status,2,c
  2251  001342  EFA5  F009         	goto	u2541
  2252  001346  EFA7  F009         	goto	u2540
  2253  00134A                     u2541:
  2254  00134A  EFDC  F009         	goto	l2697
  2255  00134E                     u2540:
  2256  00134E                     
  2257                           ; BSR set to: 0
  2258                           ;main.c: 286: {;main.c: 287: if(m_tabMines[ligne-1][colonne-1]==2)
  2259  00134E  C0BA  F0B4         	movff	calculToucheCombien@ligne,___wmul@multiplier
  2260  001352  C0BB  F0B5         	movff	calculToucheCombien@ligne+1,___wmul@multiplier+1
  2261  001356  0E00               	movlw	0
  2262  001358  0100               	movlb	0	; force () banked
  2263  00135A  6FB7               	movwf	(___wmul@multiplicand+1)& (0+255),b
  2264  00135C  0E15               	movlw	21
  2265  00135E  6FB6               	movwf	___wmul@multiplicand& (0+255),b
  2266  001360  EC0D  F01A         	call	___wmul	;wreg free
  2267  001364  0EEA               	movlw	234
  2268  001366  0100               	movlb	0	; force () banked
  2269  001368  6FBE               	movwf	??_calculToucheCombien& (0+255),b
  2270  00136A  0EFF               	movlw	255
  2271  00136C  6FBF               	movwf	(??_calculToucheCombien+1)& (0+255),b
  2272  00136E  0E60               	movlw	low _m_tabMines
  2273  001370  6FC0               	movwf	(??_calculToucheCombien+2)& (0+255),b
  2274  001372  0E00               	movlw	high _m_tabMines
  2275  001374  6FC1               	movwf	(??_calculToucheCombien+3)& (0+255),b
  2276  001376  51BE               	movf	??_calculToucheCombien& (0+255),w,b
  2277  001378  27C0               	addwf	(??_calculToucheCombien+2)& (0+255),f,b
  2278  00137A  51BF               	movf	(??_calculToucheCombien+1)& (0+255),w,b
  2279  00137C  23C1               	addwfc	(??_calculToucheCombien+3)& (0+255),f,b
  2280  00137E  0100               	movlb	0	; force () banked
  2281  001380  51B4               	movf	?___wmul& (0+255),w,b
  2282  001382  0100               	movlb	0	; force () banked
  2283  001384  27C0               	addwf	(??_calculToucheCombien+2)& (0+255),f,b
  2284  001386  0100               	movlb	0	; force () banked
  2285  001388  51B5               	movf	(?___wmul+1)& (0+255),w,b
  2286  00138A  0100               	movlb	0	; force () banked
  2287  00138C  23C1               	addwfc	(??_calculToucheCombien+3)& (0+255),f,b
  2288  00138E  0100               	movlb	0	; force () banked
  2289  001390  51BC               	movf	calculToucheCombien@colonne& (0+255),w,b
  2290  001392  0100               	movlb	0	; force () banked
  2291  001394  25C0               	addwf	(??_calculToucheCombien+2)& (0+255),w,b
  2292  001396  6ED9               	movwf	fsr2l,c
  2293  001398  0100               	movlb	0	; force () banked
  2294  00139A  51BD               	movf	(calculToucheCombien@colonne+1)& (0+255),w,b
  2295  00139C  0100               	movlb	0	; force () banked
  2296  00139E  21C1               	addwfc	(??_calculToucheCombien+3)& (0+255),w,b
  2297  0013A0  6EDA               	movwf	fsr2h,c
  2298  0013A2  0E02               	movlw	2
  2299  0013A4  18DE               	xorwf	postinc2,w,c
  2300  0013A6  A4D8               	btfss	status,2,c
  2301  0013A8  EFD8  F009         	goto	u2551
  2302  0013AC  EFDA  F009         	goto	u2550
  2303  0013B0                     u2551:
  2304  0013B0  EFDC  F009         	goto	l2697
  2305  0013B4                     u2550:
  2306  0013B4                     
  2307                           ; BSR set to: 0
  2308                           ;main.c: 288: nombreTouche++;
  2309  0013B4  0100               	movlb	0	; force () banked
  2310  0013B6  2BC3               	incf	calculToucheCombien@nombreTouche& (0+255),f,b
  2311  0013B8                     l2697:
  2312                           
  2313                           ; BSR set to: 0
  2314                           ;main.c: 289: };main.c: 290: if(ligne!=0&&colonne!=19)
  2315  0013B8  0100               	movlb	0	; force () banked
  2316  0013BA  51BA               	movf	calculToucheCombien@ligne& (0+255),w,b
  2317  0013BC  11BB               	iorwf	(calculToucheCombien@ligne+1)& (0+255),w,b
  2318  0013BE  B4D8               	btfsc	status,2,c
  2319  0013C0  EFE4  F009         	goto	u2561
  2320  0013C4  EFE6  F009         	goto	u2560
  2321  0013C8                     u2561:
  2322  0013C8  EF26  F00A         	goto	l2705
  2323  0013CC                     u2560:
  2324  0013CC                     
  2325                           ; BSR set to: 0
  2326  0013CC  0E13               	movlw	19
  2327  0013CE  0100               	movlb	0	; force () banked
  2328  0013D0  19BC               	xorwf	calculToucheCombien@colonne& (0+255),w,b
  2329  0013D2  11BD               	iorwf	(calculToucheCombien@colonne+1)& (0+255),w,b
  2330  0013D4  B4D8               	btfsc	status,2,c
  2331  0013D6  EFEF  F009         	goto	u2571
  2332  0013DA  EFF1  F009         	goto	u2570
  2333  0013DE                     u2571:
  2334  0013DE  EF26  F00A         	goto	l2705
  2335  0013E2                     u2570:
  2336  0013E2                     
  2337                           ; BSR set to: 0
  2338                           ;main.c: 291: {;main.c: 292: if(m_tabMines[ligne-1][colonne+1]==2)
  2339  0013E2  C0BA  F0B4         	movff	calculToucheCombien@ligne,___wmul@multiplier
  2340  0013E6  C0BB  F0B5         	movff	calculToucheCombien@ligne+1,___wmul@multiplier+1
  2341  0013EA  0E00               	movlw	0
  2342  0013EC  0100               	movlb	0	; force () banked
  2343  0013EE  6FB7               	movwf	(___wmul@multiplicand+1)& (0+255),b
  2344  0013F0  0E15               	movlw	21
  2345  0013F2  6FB6               	movwf	___wmul@multiplicand& (0+255),b
  2346  0013F4  EC0D  F01A         	call	___wmul	;wreg free
  2347  0013F8  0EEC               	movlw	236
  2348  0013FA  0100               	movlb	0	; force () banked
  2349  0013FC  6FBE               	movwf	??_calculToucheCombien& (0+255),b
  2350  0013FE  0EFF               	movlw	255
  2351  001400  6FBF               	movwf	(??_calculToucheCombien+1)& (0+255),b
  2352  001402  0E60               	movlw	low _m_tabMines
  2353  001404  6FC0               	movwf	(??_calculToucheCombien+2)& (0+255),b
  2354  001406  0E00               	movlw	high _m_tabMines
  2355  001408  6FC1               	movwf	(??_calculToucheCombien+3)& (0+255),b
  2356  00140A  51BE               	movf	??_calculToucheCombien& (0+255),w,b
  2357  00140C  27C0               	addwf	(??_calculToucheCombien+2)& (0+255),f,b
  2358  00140E  51BF               	movf	(??_calculToucheCombien+1)& (0+255),w,b
  2359  001410  23C1               	addwfc	(??_calculToucheCombien+3)& (0+255),f,b
  2360  001412  0100               	movlb	0	; force () banked
  2361  001414  51B4               	movf	?___wmul& (0+255),w,b
  2362  001416  0100               	movlb	0	; force () banked
  2363  001418  27C0               	addwf	(??_calculToucheCombien+2)& (0+255),f,b
  2364  00141A  0100               	movlb	0	; force () banked
  2365  00141C  51B5               	movf	(?___wmul+1)& (0+255),w,b
  2366  00141E  0100               	movlb	0	; force () banked
  2367  001420  23C1               	addwfc	(??_calculToucheCombien+3)& (0+255),f,b
  2368  001422  0100               	movlb	0	; force () banked
  2369  001424  51BC               	movf	calculToucheCombien@colonne& (0+255),w,b
  2370  001426  0100               	movlb	0	; force () banked
  2371  001428  25C0               	addwf	(??_calculToucheCombien+2)& (0+255),w,b
  2372  00142A  6ED9               	movwf	fsr2l,c
  2373  00142C  0100               	movlb	0	; force () banked
  2374  00142E  51BD               	movf	(calculToucheCombien@colonne+1)& (0+255),w,b
  2375  001430  0100               	movlb	0	; force () banked
  2376  001432  21C1               	addwfc	(??_calculToucheCombien+3)& (0+255),w,b
  2377  001434  6EDA               	movwf	fsr2h,c
  2378  001436  0E02               	movlw	2
  2379  001438  18DE               	xorwf	postinc2,w,c
  2380  00143A  A4D8               	btfss	status,2,c
  2381  00143C  EF22  F00A         	goto	u2581
  2382  001440  EF24  F00A         	goto	u2580
  2383  001444                     u2581:
  2384  001444  EF26  F00A         	goto	l2705
  2385  001448                     u2580:
  2386  001448                     
  2387                           ; BSR set to: 0
  2388                           ;main.c: 293: nombreTouche++;
  2389  001448  0100               	movlb	0	; force () banked
  2390  00144A  2BC3               	incf	calculToucheCombien@nombreTouche& (0+255),f,b
  2391  00144C                     l2705:
  2392                           
  2393                           ; BSR set to: 0
  2394                           ;main.c: 294: };main.c: 295: if(colonne!=19)
  2395  00144C  0E13               	movlw	19
  2396  00144E  0100               	movlb	0	; force () banked
  2397  001450  19BC               	xorwf	calculToucheCombien@colonne& (0+255),w,b
  2398  001452  11BD               	iorwf	(calculToucheCombien@colonne+1)& (0+255),w,b
  2399  001454  B4D8               	btfsc	status,2,c
  2400  001456  EF2F  F00A         	goto	u2591
  2401  00145A  EF31  F00A         	goto	u2590
  2402  00145E                     u2591:
  2403  00145E  EF62  F00A         	goto	l2711
  2404  001462                     u2590:
  2405  001462                     
  2406                           ; BSR set to: 0
  2407                           ;main.c: 296: {;main.c: 297: if(m_tabMines[ligne][colonne+1]==2)
  2408  001462  C0BA  F0B4         	movff	calculToucheCombien@ligne,___wmul@multiplier
  2409  001466  C0BB  F0B5         	movff	calculToucheCombien@ligne+1,___wmul@multiplier+1
  2410  00146A  0E00               	movlw	0
  2411  00146C  0100               	movlb	0	; force () banked
  2412  00146E  6FB7               	movwf	(___wmul@multiplicand+1)& (0+255),b
  2413  001470  0E15               	movlw	21
  2414  001472  6FB6               	movwf	___wmul@multiplicand& (0+255),b
  2415  001474  EC0D  F01A         	call	___wmul	;wreg free
  2416  001478  0E60               	movlw	low _m_tabMines
  2417  00147A  0100               	movlb	0	; force () banked
  2418  00147C  6FBE               	movwf	??_calculToucheCombien& (0+255),b
  2419  00147E  0E00               	movlw	high _m_tabMines
  2420  001480  6FBF               	movwf	(??_calculToucheCombien+1)& (0+255),b
  2421  001482  0E01               	movlw	1
  2422  001484  27BE               	addwf	??_calculToucheCombien& (0+255),f,b
  2423  001486  0E00               	movlw	0
  2424  001488  23BF               	addwfc	(??_calculToucheCombien+1)& (0+255),f,b
  2425  00148A  0100               	movlb	0	; force () banked
  2426  00148C  51B4               	movf	?___wmul& (0+255),w,b
  2427  00148E  0100               	movlb	0	; force () banked
  2428  001490  27BE               	addwf	??_calculToucheCombien& (0+255),f,b
  2429  001492  0100               	movlb	0	; force () banked
  2430  001494  51B5               	movf	(?___wmul+1)& (0+255),w,b
  2431  001496  0100               	movlb	0	; force () banked
  2432  001498  23BF               	addwfc	(??_calculToucheCombien+1)& (0+255),f,b
  2433  00149A  0100               	movlb	0	; force () banked
  2434  00149C  51BC               	movf	calculToucheCombien@colonne& (0+255),w,b
  2435  00149E  0100               	movlb	0	; force () banked
  2436  0014A0  25BE               	addwf	??_calculToucheCombien& (0+255),w,b
  2437  0014A2  6ED9               	movwf	fsr2l,c
  2438  0014A4  0100               	movlb	0	; force () banked
  2439  0014A6  51BD               	movf	(calculToucheCombien@colonne+1)& (0+255),w,b
  2440  0014A8  0100               	movlb	0	; force () banked
  2441  0014AA  21BF               	addwfc	(??_calculToucheCombien+1)& (0+255),w,b
  2442  0014AC  6EDA               	movwf	fsr2h,c
  2443  0014AE  0E02               	movlw	2
  2444  0014B0  18DE               	xorwf	postinc2,w,c
  2445  0014B2  A4D8               	btfss	status,2,c
  2446  0014B4  EF5E  F00A         	goto	u2601
  2447  0014B8  EF60  F00A         	goto	u2600
  2448  0014BC                     u2601:
  2449  0014BC  EF62  F00A         	goto	l2711
  2450  0014C0                     u2600:
  2451  0014C0                     
  2452                           ; BSR set to: 0
  2453                           ;main.c: 298: nombreTouche++;
  2454  0014C0  0100               	movlb	0	; force () banked
  2455  0014C2  2BC3               	incf	calculToucheCombien@nombreTouche& (0+255),f,b
  2456  0014C4                     l2711:
  2457                           
  2458                           ; BSR set to: 0
  2459                           ;main.c: 299: };main.c: 300: if(colonne!=0)
  2460  0014C4  0100               	movlb	0	; force () banked
  2461  0014C6  51BC               	movf	calculToucheCombien@colonne& (0+255),w,b
  2462  0014C8  11BD               	iorwf	(calculToucheCombien@colonne+1)& (0+255),w,b
  2463  0014CA  B4D8               	btfsc	status,2,c
  2464  0014CC  EF6A  F00A         	goto	u2611
  2465  0014D0  EF6C  F00A         	goto	u2610
  2466  0014D4                     u2611:
  2467  0014D4  EFA1  F00A         	goto	l2717
  2468  0014D8                     u2610:
  2469  0014D8                     
  2470                           ; BSR set to: 0
  2471                           ;main.c: 301: {;main.c: 302: if(m_tabMines[ligne][colonne-1]==2)
  2472  0014D8  C0BA  F0B4         	movff	calculToucheCombien@ligne,___wmul@multiplier
  2473  0014DC  C0BB  F0B5         	movff	calculToucheCombien@ligne+1,___wmul@multiplier+1
  2474  0014E0  0E00               	movlw	0
  2475  0014E2  0100               	movlb	0	; force () banked
  2476  0014E4  6FB7               	movwf	(___wmul@multiplicand+1)& (0+255),b
  2477  0014E6  0E15               	movlw	21
  2478  0014E8  6FB6               	movwf	___wmul@multiplicand& (0+255),b
  2479  0014EA  EC0D  F01A         	call	___wmul	;wreg free
  2480  0014EE  0EFF               	movlw	255
  2481  0014F0  0100               	movlb	0	; force () banked
  2482  0014F2  6FBE               	movwf	??_calculToucheCombien& (0+255),b
  2483  0014F4  0EFF               	movlw	255
  2484  0014F6  6FBF               	movwf	(??_calculToucheCombien+1)& (0+255),b
  2485  0014F8  0E60               	movlw	low _m_tabMines
  2486  0014FA  6FC0               	movwf	(??_calculToucheCombien+2)& (0+255),b
  2487  0014FC  0E00               	movlw	high _m_tabMines
  2488  0014FE  6FC1               	movwf	(??_calculToucheCombien+3)& (0+255),b
  2489  001500  51BE               	movf	??_calculToucheCombien& (0+255),w,b
  2490  001502  27C0               	addwf	(??_calculToucheCombien+2)& (0+255),f,b
  2491  001504  51BF               	movf	(??_calculToucheCombien+1)& (0+255),w,b
  2492  001506  23C1               	addwfc	(??_calculToucheCombien+3)& (0+255),f,b
  2493  001508  0100               	movlb	0	; force () banked
  2494  00150A  51B4               	movf	?___wmul& (0+255),w,b
  2495  00150C  0100               	movlb	0	; force () banked
  2496  00150E  27C0               	addwf	(??_calculToucheCombien+2)& (0+255),f,b
  2497  001510  0100               	movlb	0	; force () banked
  2498  001512  51B5               	movf	(?___wmul+1)& (0+255),w,b
  2499  001514  0100               	movlb	0	; force () banked
  2500  001516  23C1               	addwfc	(??_calculToucheCombien+3)& (0+255),f,b
  2501  001518  0100               	movlb	0	; force () banked
  2502  00151A  51BC               	movf	calculToucheCombien@colonne& (0+255),w,b
  2503  00151C  0100               	movlb	0	; force () banked
  2504  00151E  25C0               	addwf	(??_calculToucheCombien+2)& (0+255),w,b
  2505  001520  6ED9               	movwf	fsr2l,c
  2506  001522  0100               	movlb	0	; force () banked
  2507  001524  51BD               	movf	(calculToucheCombien@colonne+1)& (0+255),w,b
  2508  001526  0100               	movlb	0	; force () banked
  2509  001528  21C1               	addwfc	(??_calculToucheCombien+3)& (0+255),w,b
  2510  00152A  6EDA               	movwf	fsr2h,c
  2511  00152C  0E02               	movlw	2
  2512  00152E  18DE               	xorwf	postinc2,w,c
  2513  001530  A4D8               	btfss	status,2,c
  2514  001532  EF9D  F00A         	goto	u2621
  2515  001536  EF9F  F00A         	goto	u2620
  2516  00153A                     u2621:
  2517  00153A  EFA1  F00A         	goto	l2717
  2518  00153E                     u2620:
  2519  00153E                     
  2520                           ; BSR set to: 0
  2521                           ;main.c: 303: nombreTouche++;
  2522  00153E  0100               	movlb	0	; force () banked
  2523  001540  2BC3               	incf	calculToucheCombien@nombreTouche& (0+255),f,b
  2524  001542                     l2717:
  2525                           
  2526                           ; BSR set to: 0
  2527                           ;main.c: 304: };main.c: 305: };main.c: 306: return nombreTouche;
  2528  001542  0100               	movlb	0	; force () banked
  2529  001544  51C3               	movf	calculToucheCombien@nombreTouche& (0+255),w,b
  2530  001546                     
  2531                           ; BSR set to: 0
  2532  001546  0012               	return		;funcret
  2533  001548                     __end_of_calculToucheCombien:
  2534                           	opt callstack 0
  2535                           
  2536 ;; *************** function _menuAccueil *****************
  2537 ;; Defined at:
  2538 ;;		line 135 in file "main.c"
  2539 ;; Parameters:    Size  Location     Type
  2540 ;;		None
  2541 ;; Auto vars:     Size  Location     Type
  2542 ;;  menuMsgs       40   16[BANK0 ] const unsigned char [20]
  2543 ;; Return value:  Size  Location     Type
  2544 ;;                  1    wreg      void 
  2545 ;; Registers used:
  2546 ;;		wreg, fsr1l, fsr1h, fsr2l, fsr2h, status,2, status,0, tblptrl, tblptrh, tblptru, cstack
  2547 ;; Tracked objects:
  2548 ;;		On entry : 0/0
  2549 ;;		On exit  : 0/0
  2550 ;;		Unchanged: 0/0
  2551 ;; Data sizes:     COMRAM   BANK0   BANK1   BANK2   BANK3   BANK4   BANK5
  2552 ;;      Params:         0       0       0       0       0       0       0
  2553 ;;      Locals:         0      40       0       0       0       0       0
  2554 ;;      Temps:          0       2       0       0       0       0       0
  2555 ;;      Totals:         0      42       0       0       0       0       0
  2556 ;;Total ram usage:       42 bytes
  2557 ;; Hardware stack levels used:    1
  2558 ;; Hardware stack levels required when called:    5
  2559 ;; This function calls:
  2560 ;;		_lcd_cacheCurseur
  2561 ;;		_lcd_curseurHome
  2562 ;;		_lcd_effaceAffichage
  2563 ;;		_lcd_gotoXY
  2564 ;;		_lcd_putMessage
  2565 ;; This function is called by:
  2566 ;;		_main
  2567 ;; This function uses a non-reentrant model
  2568 ;;
  2569                           
  2570                           	psect	text7
  2571  002E54                     __ptext7:
  2572                           	opt callstack 0
  2573  002E54                     _menuAccueil:
  2574                           	opt callstack 25
  2575  002E54                     
  2576                           ;main.c: 138: const char menuMsgs[2][20] = {"Laboratoire 6 ","Simon Jourdenais"};
  2577  002E54  0E01               	movlw	low menuAccueil@F2919
  2578  002E56  6EF6               	movwf	tblptrl,c
  2579  002E58                     	if	1	;There is more than 1 active tblptr byte
  2580  002E58  0E06               	movlw	high menuAccueil@F2919
  2581  002E5A  6EF7               	movwf	tblptrh,c
  2582  002E5C                     	endif
  2583  002E5C                     	if	1	;There are 3 active tblptr bytes
  2584  002E5C  0E00               	movlw	low (menuAccueil@F2919 shr (0+16))
  2585  002E5E  6EF8               	movwf	tblptru,c
  2586  002E60                     	endif
  2587  002E60  EE20  F0C4         	lfsr	2,menuAccueil@menuMsgs
  2588  002E64  0E27               	movlw	39
  2589  002E66                     u2830:
  2590  002E66  0009               	tblrd		*+
  2591  002E68  CFF5 FFDE          	movff	tablat,postinc2
  2592  002E6C  06E8               	decf	wreg,f,c
  2593  002E6E  E2FB               	bc	u2830
  2594  002E70                     
  2595                           ;main.c: 139: lcd_effaceAffichage();
  2596  002E70  EC46  F01A         	call	_lcd_effaceAffichage	;wreg free
  2597  002E74                     
  2598                           ;main.c: 140: lcd_putMessage(menuMsgs[0]);
  2599  002E74  0EC4               	movlw	low menuAccueil@menuMsgs
  2600  002E76  0100               	movlb	0	; force () banked
  2601  002E78  6FB9               	movwf	lcd_putMessage@chaine& (0+255),b
  2602  002E7A  0E00               	movlw	high menuAccueil@menuMsgs
  2603  002E7C  6FBA               	movwf	(lcd_putMessage@chaine+1)& (0+255),b
  2604  002E7E  51B9               	movf	lcd_putMessage@chaine& (0+255),w,b
  2605  002E80  11BA               	iorwf	(lcd_putMessage@chaine+1)& (0+255),w,b
  2606  002E82  A4D8               	btfss	status,2,c
  2607  002E84  0E20               	movlw	32
  2608  002E86  6FBB               	movwf	(lcd_putMessage@chaine+2)& (0+255),b
  2609  002E88  ECDB  F015         	call	_lcd_putMessage	;wreg free
  2610  002E8C                     
  2611                           ;main.c: 141: lcd_gotoXY(1,3);
  2612  002E8C  0E03               	movlw	3
  2613  002E8E  0100               	movlb	0	; force () banked
  2614  002E90  6FB7               	movwf	lcd_gotoXY@y& (0+255),b
  2615  002E92  0E01               	movlw	1
  2616  002E94  EC6D  F017         	call	_lcd_gotoXY
  2617  002E98                     
  2618                           ;main.c: 142: lcd_putMessage(menuMsgs[1]);
  2619  002E98  0ED8               	movlw	low (menuAccueil@menuMsgs+20)
  2620  002E9A  0100               	movlb	0	; force () banked
  2621  002E9C  6FB9               	movwf	lcd_putMessage@chaine& (0+255),b
  2622  002E9E  0E00               	movlw	high (menuAccueil@menuMsgs+20)
  2623  002EA0  6FBA               	movwf	(lcd_putMessage@chaine+1)& (0+255),b
  2624  002EA2  51B9               	movf	lcd_putMessage@chaine& (0+255),w,b
  2625  002EA4  11BA               	iorwf	(lcd_putMessage@chaine+1)& (0+255),w,b
  2626  002EA6  A4D8               	btfss	status,2,c
  2627  002EA8  0E20               	movlw	32
  2628  002EAA  6FBB               	movwf	(lcd_putMessage@chaine+2)& (0+255),b
  2629  002EAC  ECDB  F015         	call	_lcd_putMessage	;wreg free
  2630  002EB0                     
  2631                           ;main.c: 143: lcd_curseurHome();
  2632  002EB0  EC55  F01A         	call	_lcd_curseurHome	;wreg free
  2633  002EB4                     
  2634                           ;main.c: 144: lcd_cacheCurseur();
  2635  002EB4  EC4D  F01A         	call	_lcd_cacheCurseur	;wreg free
  2636  002EB8                     
  2637                           ;main.c: 145: _delay((unsigned long)((1000)*(1000000/4000.0)));
  2638  002EB8  0E02               	movlw	2
  2639  002EBA  0100               	movlb	0	; force () banked
  2640  002EBC  6FC3               	movwf	(??_menuAccueil+1)& (0+255),b
  2641  002EBE  0E45               	movlw	69
  2642  002EC0  6FC2               	movwf	??_menuAccueil& (0+255),b
  2643  002EC2  0EA9               	movlw	169
  2644  002EC4                     u3427:
  2645  002EC4  2EE8               	decfsz	wreg,f,c
  2646  002EC6  D7FE               	bra	u3427
  2647  002EC8  2FC2               	decfsz	??_menuAccueil& (0+255),f,b
  2648  002ECA  D7FC               	bra	u3427
  2649  002ECC  2FC3               	decfsz	(??_menuAccueil+1)& (0+255),f,b
  2650  002ECE  D7FA               	bra	u3427
  2651  002ED0  F000 F000          	nop2	
  2652  002ED4                     
  2653                           ;main.c: 146: lcd_effaceAffichage();
  2654  002ED4  EC46  F01A         	call	_lcd_effaceAffichage	;wreg free
  2655  002ED8  0012               	return		;funcret
  2656  002EDA                     __end_of_menuAccueil:
  2657                           	opt callstack 0
  2658                           
  2659 ;; *************** function _lcd_cacheCurseur *****************
  2660 ;; Defined at:
  2661 ;;		line 402 in file "Lcd4Lignes.c"
  2662 ;; Parameters:    Size  Location     Type
  2663 ;;		None
  2664 ;; Auto vars:     Size  Location     Type
  2665 ;;		None
  2666 ;; Return value:  Size  Location     Type
  2667 ;;                  1    wreg      void 
  2668 ;; Registers used:
  2669 ;;		wreg, status,2, status,0, cstack
  2670 ;; Tracked objects:
  2671 ;;		On entry : 0/0
  2672 ;;		On exit  : 0/0
  2673 ;;		Unchanged: 0/0
  2674 ;; Data sizes:     COMRAM   BANK0   BANK1   BANK2   BANK3   BANK4   BANK5
  2675 ;;      Params:         0       0       0       0       0       0       0
  2676 ;;      Locals:         0       0       0       0       0       0       0
  2677 ;;      Temps:          0       0       0       0       0       0       0
  2678 ;;      Totals:         0       0       0       0       0       0       0
  2679 ;;Total ram usage:        0 bytes
  2680 ;; Hardware stack levels used:    1
  2681 ;; Hardware stack levels required when called:    3
  2682 ;; This function calls:
  2683 ;;		_lcd_wrCom
  2684 ;; This function is called by:
  2685 ;;		_menuAccueil
  2686 ;; This function uses a non-reentrant model
  2687 ;;
  2688                           
  2689                           	psect	text8
  2690  00349A                     __ptext8:
  2691                           	opt callstack 0
  2692  00349A                     _lcd_cacheCurseur:
  2693                           	opt callstack 26
  2694  00349A                     
  2695                           ;Lcd4Lignes.c: 404: lcd_wrCom(0x0C);
  2696  00349A  0E0C               	movlw	12
  2697  00349C  EC4A  F018         	call	_lcd_wrCom
  2698  0034A0  0012               	return		;funcret
  2699  0034A2                     __end_of_lcd_cacheCurseur:
  2700                           	opt callstack 0
  2701                           
  2702 ;; *************** function _lcd_montreCurseur *****************
  2703 ;; Defined at:
  2704 ;;		line 413 in file "Lcd4Lignes.c"
  2705 ;; Parameters:    Size  Location     Type
  2706 ;;		None
  2707 ;; Auto vars:     Size  Location     Type
  2708 ;;		None
  2709 ;; Return value:  Size  Location     Type
  2710 ;;                  1    wreg      void 
  2711 ;; Registers used:
  2712 ;;		wreg, status,2, status,0, cstack
  2713 ;; Tracked objects:
  2714 ;;		On entry : 0/0
  2715 ;;		On exit  : 0/0
  2716 ;;		Unchanged: 0/0
  2717 ;; Data sizes:     COMRAM   BANK0   BANK1   BANK2   BANK3   BANK4   BANK5
  2718 ;;      Params:         0       0       0       0       0       0       0
  2719 ;;      Locals:         0       0       0       0       0       0       0
  2720 ;;      Temps:          0       0       0       0       0       0       0
  2721 ;;      Totals:         0       0       0       0       0       0       0
  2722 ;;Total ram usage:        0 bytes
  2723 ;; Hardware stack levels used:    1
  2724 ;; Hardware stack levels required when called:    3
  2725 ;; This function calls:
  2726 ;;		_lcd_wrCom
  2727 ;; This function is called by:
  2728 ;;		_main
  2729 ;; This function uses a non-reentrant model
  2730 ;;
  2731                           
  2732                           	psect	text9
  2733  0034A2                     __ptext9:
  2734                           	opt callstack 0
  2735  0034A2                     _lcd_montreCurseur:
  2736                           	opt callstack 27
  2737  0034A2                     
  2738                           ;Lcd4Lignes.c: 415: lcd_wrCom(0x0F);
  2739  0034A2  0E0F               	movlw	15
  2740  0034A4  EC4A  F018         	call	_lcd_wrCom
  2741  0034A8  0012               	return		;funcret
  2742  0034AA                     __end_of_lcd_montreCurseur:
  2743                           	opt callstack 0
  2744                           
  2745 ;; *************** function _lcd_init *****************
  2746 ;; Defined at:
  2747 ;;		line 259 in file "Lcd4Lignes.c"
  2748 ;; Parameters:    Size  Location     Type
  2749 ;;		None
  2750 ;; Auto vars:     Size  Location     Type
  2751 ;;		None
  2752 ;; Return value:  Size  Location     Type
  2753 ;;                  1    wreg      void 
  2754 ;; Registers used:
  2755 ;;		wreg, fsr2l, fsr2h, status,2, status,0, prodl, prodh, cstack
  2756 ;; Tracked objects:
  2757 ;;		On entry : 0/0
  2758 ;;		On exit  : 0/0
  2759 ;;		Unchanged: 0/0
  2760 ;; Data sizes:     COMRAM   BANK0   BANK1   BANK2   BANK3   BANK4   BANK5
  2761 ;;      Params:         0       0       0       0       0       0       0
  2762 ;;      Locals:         0       0       0       0       0       0       0
  2763 ;;      Temps:          0       0       0       0       0       0       0
  2764 ;;      Totals:         0       0       0       0       0       0       0
  2765 ;;Total ram usage:        0 bytes
  2766 ;; Hardware stack levels used:    1
  2767 ;; Hardware stack levels required when called:    5
  2768 ;; This function calls:
  2769 ;;		_lcd_initCGRam
  2770 ;;		_lcd_resetSequence
  2771 ;;		_lcd_wrCom
  2772 ;; This function is called by:
  2773 ;;		_main
  2774 ;; This function uses a non-reentrant model
  2775 ;;
  2776                           
  2777                           	psect	text10
  2778  0033F2                     __ptext10:
  2779                           	opt callstack 0
  2780  0033F2                     _lcd_init:
  2781                           	opt callstack 25
  2782  0033F2                     
  2783                           ;Lcd4Lignes.c: 262: lcd_resetSequence();
  2784  0033F2  EC80  F018         	call	_lcd_resetSequence	;wreg free
  2785                           
  2786                           ;Lcd4Lignes.c: 263: lcd_wrCom(0x28);
  2787  0033F6  0E28               	movlw	40
  2788  0033F8  EC4A  F018         	call	_lcd_wrCom
  2789                           
  2790                           ;Lcd4Lignes.c: 264: lcd_wrCom(0x0F);
  2791  0033FC  0E0F               	movlw	15
  2792  0033FE  EC4A  F018         	call	_lcd_wrCom
  2793                           
  2794                           ;Lcd4Lignes.c: 265: lcd_wrCom(0x01);
  2795  003402  0E01               	movlw	1
  2796  003404  EC4A  F018         	call	_lcd_wrCom
  2797                           
  2798                           ;Lcd4Lignes.c: 266: lcd_wrCom(0x06);
  2799  003408  0E06               	movlw	6
  2800  00340A  EC4A  F018         	call	_lcd_wrCom
  2801                           
  2802                           ;Lcd4Lignes.c: 267: lcd_wrCom(0x80);
  2803  00340E  0E80               	movlw	128
  2804  003410  EC4A  F018         	call	_lcd_wrCom
  2805  003414                     
  2806                           ;Lcd4Lignes.c: 268: lcd_initCGRam();
  2807  003414  EC8E  F016         	call	_lcd_initCGRam	;wreg free
  2808  003418  0012               	return		;funcret
  2809  00341A                     __end_of_lcd_init:
  2810                           	opt callstack 0
  2811                           
  2812 ;; *************** function _lcd_resetSequence *****************
  2813 ;; Defined at:
  2814 ;;		line 222 in file "Lcd4Lignes.c"
  2815 ;; Parameters:    Size  Location     Type
  2816 ;;		None
  2817 ;; Auto vars:     Size  Location     Type
  2818 ;;		None
  2819 ;; Return value:  Size  Location     Type
  2820 ;;                  1    wreg      void 
  2821 ;; Registers used:
  2822 ;;		wreg, status,2, status,0, cstack
  2823 ;; Tracked objects:
  2824 ;;		On entry : 0/0
  2825 ;;		On exit  : 0/0
  2826 ;;		Unchanged: 0/0
  2827 ;; Data sizes:     COMRAM   BANK0   BANK1   BANK2   BANK3   BANK4   BANK5
  2828 ;;      Params:         0       0       0       0       0       0       0
  2829 ;;      Locals:         0       0       0       0       0       0       0
  2830 ;;      Temps:          0       1       0       0       0       0       0
  2831 ;;      Totals:         0       1       0       0       0       0       0
  2832 ;;Total ram usage:        1 bytes
  2833 ;; Hardware stack levels used:    1
  2834 ;; Hardware stack levels required when called:    1
  2835 ;; This function calls:
  2836 ;;		_lcd_ecrireDonnees
  2837 ;;		_lcd_strobeEnableBit
  2838 ;; This function is called by:
  2839 ;;		_lcd_init
  2840 ;; This function uses a non-reentrant model
  2841 ;;
  2842                           
  2843                           	psect	text11
  2844  003100                     __ptext11:
  2845                           	opt callstack 0
  2846  003100                     _lcd_resetSequence:
  2847                           	opt callstack 28
  2848  003100                     
  2849                           ;Lcd4Lignes.c: 227: TRISD = 0b00000000;
  2850  003100  0E00               	movlw	0
  2851  003102  6E95               	movwf	149,c	;volatile
  2852  003104                     
  2853                           ;Lcd4Lignes.c: 229: _delay((unsigned long)((40)*(1000000/4000.0)));
  2854  003104  0E0D               	movlw	13
  2855  003106  0100               	movlb	0	; force () banked
  2856  003108  6FB6               	movwf	??_lcd_resetSequence& (0+255),b
  2857  00310A  0EFB               	movlw	251
  2858  00310C                     u3437:
  2859  00310C  2EE8               	decfsz	wreg,f,c
  2860  00310E  D7FE               	bra	u3437
  2861  003110  2FB6               	decfsz	??_lcd_resetSequence& (0+255),f,b
  2862  003112  D7FC               	bra	u3437
  2863  003114  F000 F000          	nop2	
  2864  003118                     
  2865                           ;Lcd4Lignes.c: 230: PORTAbits.RA0 = 0;
  2866  003118  9080               	bcf	128,0,c	;volatile
  2867  00311A                     
  2868                           ;Lcd4Lignes.c: 231: PORTAbits.RA1 = 0;
  2869  00311A  9280               	bcf	128,1,c	;volatile
  2870  00311C                     
  2871                           ;Lcd4Lignes.c: 233: lcd_ecrireDonnees(0x03);
  2872  00311C  0E03               	movlw	3
  2873  00311E  EC30  F01A         	call	_lcd_ecrireDonnees
  2874  003122                     
  2875                           ;Lcd4Lignes.c: 234: lcd_strobeEnableBit();
  2876  003122  EC59  F01A         	call	_lcd_strobeEnableBit	;wreg free
  2877  003126                     
  2878                           ;Lcd4Lignes.c: 235: _delay((unsigned long)((40)*(1000000/4000000.0)));
  2879  003126  0E03               	movlw	3
  2880  003128                     u3447:
  2881  003128  2EE8               	decfsz	wreg,f,c
  2882  00312A  D7FE               	bra	u3447
  2883  00312C  F000               	nop	
  2884  00312E                     
  2885                           ;Lcd4Lignes.c: 238: lcd_ecrireDonnees(0x03);
  2886  00312E  0E03               	movlw	3
  2887  003130  EC30  F01A         	call	_lcd_ecrireDonnees
  2888  003134                     
  2889                           ;Lcd4Lignes.c: 239: lcd_strobeEnableBit();
  2890  003134  EC59  F01A         	call	_lcd_strobeEnableBit	;wreg free
  2891  003138                     
  2892                           ;Lcd4Lignes.c: 240: _delay((unsigned long)((40)*(1000000/4000000.0)));
  2893  003138  0E03               	movlw	3
  2894  00313A                     u3457:
  2895  00313A  2EE8               	decfsz	wreg,f,c
  2896  00313C  D7FE               	bra	u3457
  2897  00313E  F000               	nop	
  2898  003140                     
  2899                           ;Lcd4Lignes.c: 242: lcd_ecrireDonnees(0x03);
  2900  003140  0E03               	movlw	3
  2901  003142  EC30  F01A         	call	_lcd_ecrireDonnees
  2902  003146                     
  2903                           ;Lcd4Lignes.c: 243: lcd_strobeEnableBit();
  2904  003146  EC59  F01A         	call	_lcd_strobeEnableBit	;wreg free
  2905  00314A                     
  2906                           ;Lcd4Lignes.c: 244: _delay((unsigned long)((40)*(1000000/4000000.0)));
  2907  00314A  0E03               	movlw	3
  2908  00314C                     u3467:
  2909  00314C  2EE8               	decfsz	wreg,f,c
  2910  00314E  D7FE               	bra	u3467
  2911  003150  F000               	nop	
  2912  003152                     
  2913                           ;Lcd4Lignes.c: 246: lcd_ecrireDonnees(0x02);
  2914  003152  0E02               	movlw	2
  2915  003154  EC30  F01A         	call	_lcd_ecrireDonnees
  2916  003158                     
  2917                           ;Lcd4Lignes.c: 247: lcd_strobeEnableBit();
  2918  003158  EC59  F01A         	call	_lcd_strobeEnableBit	;wreg free
  2919  00315C                     
  2920                           ;Lcd4Lignes.c: 248: _delay((unsigned long)((40)*(1000000/4000000.0)));
  2921  00315C  0E03               	movlw	3
  2922  00315E                     u3477:
  2923  00315E  2EE8               	decfsz	wreg,f,c
  2924  003160  D7FE               	bra	u3477
  2925  003162  F000               	nop	
  2926  003164                     
  2927                           ;Lcd4Lignes.c: 250: TRISD = 0b00001111;
  2928  003164  0E0F               	movlw	15
  2929  003166  6E95               	movwf	149,c	;volatile
  2930  003168  0012               	return		;funcret
  2931  00316A                     __end_of_lcd_resetSequence:
  2932                           	opt callstack 0
  2933                           
  2934 ;; *************** function _lcd_initCGRam *****************
  2935 ;; Defined at:
  2936 ;;		line 418 in file "Lcd4Lignes.c"
  2937 ;; Parameters:    Size  Location     Type
  2938 ;;		None
  2939 ;; Auto vars:     Size  Location     Type
  2940 ;;  j               1    6[BANK0 ] unsigned char 
  2941 ;;  i               1    5[BANK0 ] unsigned char 
  2942 ;; Return value:  Size  Location     Type
  2943 ;;                  1    wreg      void 
  2944 ;; Registers used:
  2945 ;;		wreg, fsr2l, fsr2h, status,2, status,0, prodl, prodh, cstack
  2946 ;; Tracked objects:
  2947 ;;		On entry : 0/0
  2948 ;;		On exit  : 0/0
  2949 ;;		Unchanged: 0/0
  2950 ;; Data sizes:     COMRAM   BANK0   BANK1   BANK2   BANK3   BANK4   BANK5
  2951 ;;      Params:         0       0       0       0       0       0       0
  2952 ;;      Locals:         0       2       0       0       0       0       0
  2953 ;;      Temps:          0       2       0       0       0       0       0
  2954 ;;      Totals:         0       4       0       0       0       0       0
  2955 ;;Total ram usage:        4 bytes
  2956 ;; Hardware stack levels used:    1
  2957 ;; Hardware stack levels required when called:    4
  2958 ;; This function calls:
  2959 ;;		_lcd_curseurHome
  2960 ;;		_lcd_wrCom
  2961 ;;		_lcd_wrData
  2962 ;; This function is called by:
  2963 ;;		_lcd_init
  2964 ;; This function uses a non-reentrant model
  2965 ;;
  2966                           
  2967                           	psect	text12
  2968  002D1C                     __ptext12:
  2969                           	opt callstack 0
  2970  002D1C                     _lcd_initCGRam:
  2971                           	opt callstack 25
  2972  002D1C                     
  2973                           ;Lcd4Lignes.c: 420: char i,j;;Lcd4Lignes.c: 422: lcd_wrCom(0x40);
  2974  002D1C  0E40               	movlw	64
  2975  002D1E  EC4A  F018         	call	_lcd_wrCom
  2976  002D22                     
  2977                           ;Lcd4Lignes.c: 423: for(i=0;i<8;i++)
  2978  002D22  0E00               	movlw	0
  2979  002D24  0100               	movlb	0	; force () banked
  2980  002D26  6FB9               	movwf	lcd_initCGRam@i& (0+255),b
  2981  002D28                     
  2982                           ; BSR set to: 0
  2983  002D28  0E07               	movlw	7
  2984  002D2A  0100               	movlb	0	; force () banked
  2985  002D2C  65B9               	cpfsgt	lcd_initCGRam@i& (0+255),b
  2986  002D2E  EF9B  F016         	goto	u2791
  2987  002D32  EF9D  F016         	goto	u2790
  2988  002D36                     u2791:
  2989  002D36  EF9F  F016         	goto	l2841
  2990  002D3A                     u2790:
  2991  002D3A  EFDC  F016         	goto	l2857
  2992  002D3E                     l2841:
  2993                           
  2994                           ; BSR set to: 0
  2995                           ;Lcd4Lignes.c: 424: {;Lcd4Lignes.c: 425: for(j=0;j<8;j++)
  2996  002D3E  0E00               	movlw	0
  2997  002D40  0100               	movlb	0	; force () banked
  2998  002D42  6FBA               	movwf	lcd_initCGRam@j& (0+255),b
  2999  002D44                     
  3000                           ; BSR set to: 0
  3001  002D44  0E07               	movlw	7
  3002  002D46  0100               	movlb	0	; force () banked
  3003  002D48  65BA               	cpfsgt	lcd_initCGRam@j& (0+255),b
  3004  002D4A  EFA9  F016         	goto	u2801
  3005  002D4E  EFAB  F016         	goto	u2800
  3006  002D52                     u2801:
  3007  002D52  EFAD  F016         	goto	l2847
  3008  002D56                     u2800:
  3009  002D56  EFD1  F016         	goto	l2853
  3010  002D5A                     l2847:
  3011                           
  3012                           ; BSR set to: 0
  3013                           ;Lcd4Lignes.c: 426: lcd_wrData(matCGRAM[i][j]);
  3014  002D5A  0100               	movlb	0	; force () banked
  3015  002D5C  51B9               	movf	lcd_initCGRam@i& (0+255),w,b
  3016  002D5E  0D08               	mullw	8
  3017  002D60  0E00               	movlw	low _matCGRAM
  3018  002D62  0100               	movlb	0	; force () banked
  3019  002D64  6FB7               	movwf	??_lcd_initCGRam& (0+255),b
  3020  002D66  0E02               	movlw	high _matCGRAM
  3021  002D68  6FB8               	movwf	(??_lcd_initCGRam+1)& (0+255),b
  3022  002D6A  50F3               	movf	243,w,c
  3023  002D6C  27B7               	addwf	??_lcd_initCGRam& (0+255),f,b
  3024  002D6E  50F4               	movf	244,w,c
  3025  002D70  23B8               	addwfc	(??_lcd_initCGRam+1)& (0+255),f,b
  3026  002D72  0100               	movlb	0	; force () banked
  3027  002D74  51BA               	movf	lcd_initCGRam@j& (0+255),w,b
  3028  002D76  0100               	movlb	0	; force () banked
  3029  002D78  25B7               	addwf	??_lcd_initCGRam& (0+255),w,b
  3030  002D7A  6ED9               	movwf	fsr2l,c
  3031  002D7C  0100               	movlb	0	; force () banked
  3032  002D7E  0E00               	movlw	0
  3033  002D80  0100               	movlb	0	; force () banked
  3034  002D82  21B8               	addwfc	(??_lcd_initCGRam+1)& (0+255),w,b
  3035  002D84  6EDA               	movwf	fsr2h,c
  3036  002D86  50DF               	movf	indf2,w,c
  3037  002D88  ECC9  F019         	call	_lcd_wrData
  3038  002D8C  0100               	movlb	0	; force () banked
  3039  002D8E  2BBA               	incf	lcd_initCGRam@j& (0+255),f,b
  3040  002D90                     
  3041                           ; BSR set to: 0
  3042  002D90  0E07               	movlw	7
  3043  002D92  0100               	movlb	0	; force () banked
  3044  002D94  65BA               	cpfsgt	lcd_initCGRam@j& (0+255),b
  3045  002D96  EFCF  F016         	goto	u2811
  3046  002D9A  EFD1  F016         	goto	u2810
  3047  002D9E                     u2811:
  3048  002D9E  EFAD  F016         	goto	l2847
  3049  002DA2                     u2810:
  3050  002DA2                     l2853:
  3051                           
  3052                           ; BSR set to: 0
  3053  002DA2  0100               	movlb	0	; force () banked
  3054  002DA4  2BB9               	incf	lcd_initCGRam@i& (0+255),f,b
  3055  002DA6                     
  3056                           ; BSR set to: 0
  3057  002DA6  0E07               	movlw	7
  3058  002DA8  0100               	movlb	0	; force () banked
  3059  002DAA  65B9               	cpfsgt	lcd_initCGRam@i& (0+255),b
  3060  002DAC  EFDA  F016         	goto	u2821
  3061  002DB0  EFDC  F016         	goto	u2820
  3062  002DB4                     u2821:
  3063  002DB4  EF9F  F016         	goto	l2841
  3064  002DB8                     u2820:
  3065  002DB8                     l2857:
  3066                           
  3067                           ; BSR set to: 0
  3068                           ;Lcd4Lignes.c: 427: };Lcd4Lignes.c: 428: lcd_curseurHome();
  3069  002DB8  EC55  F01A         	call	_lcd_curseurHome	;wreg free
  3070  002DBC  0012               	return		;funcret
  3071  002DBE                     __end_of_lcd_initCGRam:
  3072                           	opt callstack 0
  3073                           
  3074 ;; *************** function _lcd_curseurHome *****************
  3075 ;; Defined at:
  3076 ;;		line 289 in file "Lcd4Lignes.c"
  3077 ;; Parameters:    Size  Location     Type
  3078 ;;		None
  3079 ;; Auto vars:     Size  Location     Type
  3080 ;;		None
  3081 ;; Return value:  Size  Location     Type
  3082 ;;                  1    wreg      void 
  3083 ;; Registers used:
  3084 ;;		wreg, status,2, status,0, cstack
  3085 ;; Tracked objects:
  3086 ;;		On entry : 0/0
  3087 ;;		On exit  : 0/0
  3088 ;;		Unchanged: 0/0
  3089 ;; Data sizes:     COMRAM   BANK0   BANK1   BANK2   BANK3   BANK4   BANK5
  3090 ;;      Params:         0       0       0       0       0       0       0
  3091 ;;      Locals:         0       0       0       0       0       0       0
  3092 ;;      Temps:          0       0       0       0       0       0       0
  3093 ;;      Totals:         0       0       0       0       0       0       0
  3094 ;;Total ram usage:        0 bytes
  3095 ;; Hardware stack levels used:    1
  3096 ;; Hardware stack levels required when called:    3
  3097 ;; This function calls:
  3098 ;;		_lcd_wrCom
  3099 ;; This function is called by:
  3100 ;;		_menuAccueil
  3101 ;;		_lcd_initCGRam
  3102 ;; This function uses a non-reentrant model
  3103 ;;
  3104                           
  3105                           	psect	text13
  3106  0034AA                     __ptext13:
  3107                           	opt callstack 0
  3108  0034AA                     _lcd_curseurHome:
  3109                           	opt callstack 26
  3110  0034AA                     
  3111                           ;Lcd4Lignes.c: 291: lcd_wrCom(0x02);
  3112  0034AA  0E02               	movlw	2
  3113  0034AC  EC4A  F018         	call	_lcd_wrCom
  3114  0034B0  0012               	return		;funcret
  3115  0034B2                     __end_of_lcd_curseurHome:
  3116                           	opt callstack 0
  3117                           
  3118 ;; *************** function _initialisation *****************
  3119 ;; Defined at:
  3120 ;;		line 602 in file "main.c"
  3121 ;; Parameters:    Size  Location     Type
  3122 ;;		None
  3123 ;; Auto vars:     Size  Location     Type
  3124 ;;		None
  3125 ;; Return value:  Size  Location     Type
  3126 ;;                  1    wreg      void 
  3127 ;; Registers used:
  3128 ;;		wreg, status,2, cstack
  3129 ;; Tracked objects:
  3130 ;;		On entry : 0/0
  3131 ;;		On exit  : 0/0
  3132 ;;		Unchanged: 0/0
  3133 ;; Data sizes:     COMRAM   BANK0   BANK1   BANK2   BANK3   BANK4   BANK5
  3134 ;;      Params:         0       0       0       0       0       0       0
  3135 ;;      Locals:         0       0       0       0       0       0       0
  3136 ;;      Temps:          0       0       0       0       0       0       0
  3137 ;;      Totals:         0       0       0       0       0       0       0
  3138 ;;Total ram usage:        0 bytes
  3139 ;; Hardware stack levels used:    1
  3140 ;; Hardware stack levels required when called:    1
  3141 ;; This function calls:
  3142 ;;		_srand
  3143 ;; This function is called by:
  3144 ;;		_main
  3145 ;; This function uses a non-reentrant model
  3146 ;;
  3147                           
  3148                           	psect	text14
  3149  00335E                     __ptext14:
  3150                           	opt callstack 0
  3151  00335E                     _initialisation:
  3152                           	opt callstack 29
  3153  00335E                     
  3154                           ;main.c: 604: TRISD = 0;
  3155  00335E  0E00               	movlw	0
  3156  003360  6E95               	movwf	149,c	;volatile
  3157                           
  3158                           ;main.c: 606: ANSELH = 0;
  3159  003362  0E00               	movlw	0
  3160  003364  6E7F               	movwf	127,c	;volatile
  3161  003366                     
  3162                           ;main.c: 607: TRISB = 0xFF;
  3163  003366  6893               	setf	147,c	;volatile
  3164                           
  3165                           ;main.c: 609: ANSEL = 0;
  3166  003368  0E00               	movlw	0
  3167  00336A  6E7E               	movwf	126,c	;volatile
  3168                           
  3169                           ;main.c: 610: TRISA = 0;
  3170  00336C  0E00               	movlw	0
  3171  00336E  6E92               	movwf	146,c	;volatile
  3172  003370                     
  3173                           ;main.c: 614: T1CONbits.TMR1ON = 1;
  3174  003370  80CD               	bsf	205,0,c	;volatile
  3175  003372                     
  3176                           ;main.c: 615: srand(TMR1);
  3177  003372  CFCE F0B4          	movff	4046,srand@x	;volatile
  3178  003376  CFCF F0B5          	movff	4047,srand@x+1	;volatile
  3179  00337A  EC3E  F01A         	call	_srand	;wreg free
  3180  00337E                     
  3181                           ;main.c: 618: ANSELbits.ANS7 = 1;
  3182  00337E  8E7E               	bsf	126,7,c	;volatile
  3183  003380                     
  3184                           ;main.c: 620: ADCON0bits.ADON = 1;
  3185  003380  80C2               	bsf	194,0,c	;volatile
  3186  003382                     
  3187                           ;main.c: 621: ADCON1 = 0;
  3188  003382  0E00               	movlw	0
  3189  003384  6EC1               	movwf	193,c	;volatile
  3190  003386                     
  3191                           ;main.c: 623: ADCON2bits.ADFM = 0;
  3192  003386  9EC0               	bcf	192,7,c	;volatile
  3193  003388                     
  3194                           ;main.c: 624: ADCON2bits.ACQT = 0;
  3195  003388  0EC7               	movlw	-57
  3196  00338A  16C0               	andwf	192,f,c	;volatile
  3197  00338C                     
  3198                           ;main.c: 625: ADCON2bits.ADCS = 0;
  3199  00338C  0EF8               	movlw	-8
  3200  00338E  16C0               	andwf	192,f,c	;volatile
  3201  003390  0012               	return		;funcret
  3202  003392                     __end_of_initialisation:
  3203                           	opt callstack 0
  3204                           
  3205 ;; *************** function _srand *****************
  3206 ;; Defined at:
  3207 ;;		line 6 in file "C:\Program Files (x86)\Microchip\xc8\v2.10\pic\sources\c90\common\rand.c"
  3208 ;; Parameters:    Size  Location     Type
  3209 ;;  x               2    0[BANK0 ] unsigned int 
  3210 ;; Auto vars:     Size  Location     Type
  3211 ;;		None
  3212 ;; Return value:  Size  Location     Type
  3213 ;;                  1    wreg      void 
  3214 ;; Registers used:
  3215 ;;		status,2
  3216 ;; Tracked objects:
  3217 ;;		On entry : 0/0
  3218 ;;		On exit  : 0/0
  3219 ;;		Unchanged: 0/0
  3220 ;; Data sizes:     COMRAM   BANK0   BANK1   BANK2   BANK3   BANK4   BANK5
  3221 ;;      Params:         0       2       0       0       0       0       0
  3222 ;;      Locals:         0       0       0       0       0       0       0
  3223 ;;      Temps:          0       0       0       0       0       0       0
  3224 ;;      Totals:         0       2       0       0       0       0       0
  3225 ;;Total ram usage:        2 bytes
  3226 ;; Hardware stack levels used:    1
  3227 ;; This function calls:
  3228 ;;		Nothing
  3229 ;; This function is called by:
  3230 ;;		_initialisation
  3231 ;; This function uses a non-reentrant model
  3232 ;;
  3233                           
  3234                           	psect	text15
  3235  00347C                     __ptext15:
  3236                           	opt callstack 0
  3237  00347C                     _srand:
  3238                           	opt callstack 29
  3239  00347C  C0B4  F0F6         	movff	srand@x,_randx
  3240  003480  C0B5  F0F7         	movff	srand@x+1,_randx+1
  3241  003484  0100               	movlb	0	; () banked
  3242  003486  6BF8               	clrf	(_randx+2)& (0+255),b
  3243  003488  6BF9               	clrf	(_randx+3)& (0+255),b
  3244  00348A                     
  3245                           ; BSR set to: 0
  3246  00348A  0012               	return		;funcret
  3247  00348C                     __end_of_srand:
  3248                           	opt callstack 0
  3249                           
  3250 ;; *************** function _init_serie *****************
  3251 ;; Defined at:
  3252 ;;		line 30 in file "serie.c"
  3253 ;; Parameters:    Size  Location     Type
  3254 ;;		None
  3255 ;; Auto vars:     Size  Location     Type
  3256 ;;		None
  3257 ;; Return value:  Size  Location     Type
  3258 ;;                  1    wreg      void 
  3259 ;; Registers used:
  3260 ;;		wreg, status,2
  3261 ;; Tracked objects:
  3262 ;;		On entry : 0/0
  3263 ;;		On exit  : 0/0
  3264 ;;		Unchanged: 0/0
  3265 ;; Data sizes:     COMRAM   BANK0   BANK1   BANK2   BANK3   BANK4   BANK5
  3266 ;;      Params:         0       0       0       0       0       0       0
  3267 ;;      Locals:         0       0       0       0       0       0       0
  3268 ;;      Temps:          0       0       0       0       0       0       0
  3269 ;;      Totals:         0       0       0       0       0       0       0
  3270 ;;Total ram usage:        0 bytes
  3271 ;; Hardware stack levels used:    1
  3272 ;; This function calls:
  3273 ;;		Nothing
  3274 ;; This function is called by:
  3275 ;;		_main
  3276 ;; This function uses a non-reentrant model
  3277 ;;
  3278                           
  3279                           	psect	text16
  3280  003442                     __ptext16:
  3281                           	opt callstack 0
  3282  003442                     _init_serie:
  3283                           	opt callstack 30
  3284  003442                     
  3285                           ;serie.c: 33: TRISCbits.TRISC7=1;
  3286  003442  8E94               	bsf	148,7,c	;volatile
  3287                           
  3288                           ;serie.c: 34: TRISCbits.TRISC6=1;
  3289  003444  8C94               	bsf	148,6,c	;volatile
  3290  003446                     
  3291                           ;serie.c: 38: SPBRGH=0x00;
  3292  003446  0E00               	movlw	0
  3293  003448  6EB0               	movwf	176,c	;volatile
  3294                           
  3295                           ;serie.c: 39: SPBRG=25;
  3296  00344A  0E19               	movlw	25
  3297  00344C  6EAF               	movwf	175,c	;volatile
  3298  00344E                     
  3299                           ;serie.c: 40: BAUDCONbits.BRG16=1;
  3300  00344E  86B8               	bsf	184,3,c	;volatile
  3301  003450                     
  3302                           ;serie.c: 41: TXSTAbits.BRGH=1;
  3303  003450  84AC               	bsf	172,2,c	;volatile
  3304  003452                     
  3305                           ;serie.c: 44: TXSTAbits.SYNC=0;
  3306  003452  98AC               	bcf	172,4,c	;volatile
  3307  003454                     
  3308                           ;serie.c: 45: TXSTAbits.TXEN=1;
  3309  003454  8AAC               	bsf	172,5,c	;volatile
  3310  003456                     
  3311                           ;serie.c: 46: RCSTAbits.CREN = 1;
  3312  003456  88AB               	bsf	171,4,c	;volatile
  3313  003458                     
  3314                           ;serie.c: 47: RCSTAbits.SPEN=1;
  3315  003458  8EAB               	bsf	171,7,c	;volatile
  3316                           
  3317                           ;serie.c: 48: ANSEL = 0;
  3318  00345A  0E00               	movlw	0
  3319  00345C  6E7E               	movwf	126,c	;volatile
  3320  00345E  0012               	return		;funcret
  3321  003460                     __end_of_init_serie:
  3322                           	opt callstack 0
  3323                           
  3324 ;; *************** function _initTabVue *****************
  3325 ;; Defined at:
  3326 ;;		line 156 in file "main.c"
  3327 ;; Parameters:    Size  Location     Type
  3328 ;;		None
  3329 ;; Auto vars:     Size  Location     Type
  3330 ;;  j               1    3[BANK0 ] unsigned char 
  3331 ;;  k               1    4[BANK0 ] unsigned char 
  3332 ;;  i               1    2[BANK0 ] unsigned char 
  3333 ;; Return value:  Size  Location     Type
  3334 ;;                  1    wreg      void 
  3335 ;; Registers used:
  3336 ;;		wreg, fsr2l, fsr2h, status,2, status,0, prodl, prodh
  3337 ;; Tracked objects:
  3338 ;;		On entry : 0/0
  3339 ;;		On exit  : 0/0
  3340 ;;		Unchanged: 0/0
  3341 ;; Data sizes:     COMRAM   BANK0   BANK1   BANK2   BANK3   BANK4   BANK5
  3342 ;;      Params:         0       0       0       0       0       0       0
  3343 ;;      Locals:         0       3       0       0       0       0       0
  3344 ;;      Temps:          0       2       0       0       0       0       0
  3345 ;;      Totals:         0       5       0       0       0       0       0
  3346 ;;Total ram usage:        5 bytes
  3347 ;; Hardware stack levels used:    1
  3348 ;; This function calls:
  3349 ;;		Nothing
  3350 ;; This function is called by:
  3351 ;;		_main
  3352 ;; This function uses a non-reentrant model
  3353 ;;
  3354                           
  3355                           	psect	text17
  3356  002950                     __ptext17:
  3357                           	opt callstack 0
  3358  002950                     _initTabVue:
  3359                           	opt callstack 30
  3360  002950                     
  3361                           ;main.c: 158: for(unsigned char i=0;i<4;i++)
  3362  002950  0E00               	movlw	0
  3363  002952  0100               	movlb	0	; force () banked
  3364  002954  6FB6               	movwf	initTabVue@i& (0+255),b
  3365  002956                     
  3366                           ; BSR set to: 0
  3367  002956  0E03               	movlw	3
  3368  002958  0100               	movlb	0	; force () banked
  3369  00295A  65B6               	cpfsgt	initTabVue@i& (0+255),b
  3370  00295C  EFB2  F014         	goto	u2841
  3371  002960  EFB4  F014         	goto	u2840
  3372  002964                     u2841:
  3373  002964  EFB6  F014         	goto	l2925
  3374  002968                     u2840:
  3375  002968  EFF2  F014         	goto	l2941
  3376  00296C                     l2925:
  3377                           
  3378                           ; BSR set to: 0
  3379                           ;main.c: 159: {;main.c: 160: for(unsigned char j=0;j<20;j++)
  3380  00296C  0E00               	movlw	0
  3381  00296E  0100               	movlb	0	; force () banked
  3382  002970  6FB7               	movwf	initTabVue@j& (0+255),b
  3383  002972                     
  3384                           ; BSR set to: 0
  3385  002972  0E13               	movlw	19
  3386  002974  0100               	movlb	0	; force () banked
  3387  002976  65B7               	cpfsgt	initTabVue@j& (0+255),b
  3388  002978  EFC0  F014         	goto	u2851
  3389  00297C  EFC2  F014         	goto	u2850
  3390  002980                     u2851:
  3391  002980  EFC4  F014         	goto	l2931
  3392  002984                     u2850:
  3393  002984  EFE7  F014         	goto	l2937
  3394  002988                     l2931:
  3395                           
  3396                           ; BSR set to: 0
  3397                           ;main.c: 161: {;main.c: 162: m_tabVue[i][j]=1;
  3398  002988  0100               	movlb	0	; force () banked
  3399  00298A  51B6               	movf	initTabVue@i& (0+255),w,b
  3400  00298C  0D15               	mullw	21
  3401  00298E  0E9C               	movlw	low _m_tabVue
  3402  002990  0100               	movlb	0	; force () banked
  3403  002992  6FB4               	movwf	??_initTabVue& (0+255),b
  3404  002994  0E01               	movlw	high _m_tabVue
  3405  002996  6FB5               	movwf	(??_initTabVue+1)& (0+255),b
  3406  002998  50F3               	movf	243,w,c
  3407  00299A  27B4               	addwf	??_initTabVue& (0+255),f,b
  3408  00299C  50F4               	movf	244,w,c
  3409  00299E  23B5               	addwfc	(??_initTabVue+1)& (0+255),f,b
  3410  0029A0  0100               	movlb	0	; force () banked
  3411  0029A2  51B7               	movf	initTabVue@j& (0+255),w,b
  3412  0029A4  0100               	movlb	0	; force () banked
  3413  0029A6  25B4               	addwf	??_initTabVue& (0+255),w,b
  3414  0029A8  6ED9               	movwf	fsr2l,c
  3415  0029AA  0100               	movlb	0	; force () banked
  3416  0029AC  0E00               	movlw	0
  3417  0029AE  0100               	movlb	0	; force () banked
  3418  0029B0  21B5               	addwfc	(??_initTabVue+1)& (0+255),w,b
  3419  0029B2  6EDA               	movwf	fsr2h,c
  3420  0029B4  0E01               	movlw	1
  3421  0029B6  6EDF               	movwf	indf2,c
  3422  0029B8                     
  3423                           ; BSR set to: 0
  3424  0029B8  0100               	movlb	0	; force () banked
  3425  0029BA  2BB7               	incf	initTabVue@j& (0+255),f,b
  3426  0029BC                     
  3427                           ; BSR set to: 0
  3428  0029BC  0E13               	movlw	19
  3429  0029BE  0100               	movlb	0	; force () banked
  3430  0029C0  65B7               	cpfsgt	initTabVue@j& (0+255),b
  3431  0029C2  EFE5  F014         	goto	u2861
  3432  0029C6  EFE7  F014         	goto	u2860
  3433  0029CA                     u2861:
  3434  0029CA  EFC4  F014         	goto	l2931
  3435  0029CE                     u2860:
  3436  0029CE                     l2937:
  3437                           
  3438                           ; BSR set to: 0
  3439  0029CE  0100               	movlb	0	; force () banked
  3440  0029D0  2BB6               	incf	initTabVue@i& (0+255),f,b
  3441  0029D2                     
  3442                           ; BSR set to: 0
  3443  0029D2  0E03               	movlw	3
  3444  0029D4  0100               	movlb	0	; force () banked
  3445  0029D6  65B6               	cpfsgt	initTabVue@i& (0+255),b
  3446  0029D8  EFF0  F014         	goto	u2871
  3447  0029DC  EFF2  F014         	goto	u2870
  3448  0029E0                     u2871:
  3449  0029E0  EFB6  F014         	goto	l2925
  3450  0029E4                     u2870:
  3451  0029E4                     l2941:
  3452                           
  3453                           ; BSR set to: 0
  3454                           ;main.c: 163: };main.c: 164: };main.c: 165: for(unsigned char k=0;k<4;k++)
  3455  0029E4  0E00               	movlw	0
  3456  0029E6  0100               	movlb	0	; force () banked
  3457  0029E8  6FB8               	movwf	initTabVue@k& (0+255),b
  3458  0029EA                     
  3459                           ; BSR set to: 0
  3460  0029EA  0E03               	movlw	3
  3461  0029EC  0100               	movlb	0	; force () banked
  3462  0029EE  65B8               	cpfsgt	initTabVue@k& (0+255),b
  3463  0029F0  EFFC  F014         	goto	u2881
  3464  0029F4  EFFE  F014         	goto	u2880
  3465  0029F8                     u2881:
  3466  0029F8  EF00  F015         	goto	l2947
  3467  0029FC                     u2880:
  3468  0029FC  EF16  F015         	goto	l118
  3469  002A00                     l2947:
  3470                           
  3471                           ; BSR set to: 0
  3472                           ;main.c: 166: {;main.c: 167: m_tabVue[k][20]='\0';
  3473  002A00  0100               	movlb	0	; force () banked
  3474  002A02  51B8               	movf	initTabVue@k& (0+255),w,b
  3475  002A04  0D15               	mullw	21
  3476  002A06  0EB0               	movlw	low (_m_tabVue+20)
  3477  002A08  24F3               	addwf	243,w,c
  3478  002A0A  6ED9               	movwf	fsr2l,c
  3479  002A0C  0E01               	movlw	high (_m_tabVue+20)
  3480  002A0E  20F4               	addwfc	prodh,w,c
  3481  002A10  6EDA               	movwf	fsr2h,c
  3482  002A12  0E00               	movlw	0
  3483  002A14  6EDF               	movwf	indf2,c
  3484  002A16                     
  3485                           ; BSR set to: 0
  3486  002A16  0100               	movlb	0	; force () banked
  3487  002A18  2BB8               	incf	initTabVue@k& (0+255),f,b
  3488  002A1A                     
  3489                           ; BSR set to: 0
  3490  002A1A  0E03               	movlw	3
  3491  002A1C  0100               	movlb	0	; force () banked
  3492  002A1E  65B8               	cpfsgt	initTabVue@k& (0+255),b
  3493  002A20  EF14  F015         	goto	u2891
  3494  002A24  EF16  F015         	goto	u2890
  3495  002A28                     u2891:
  3496  002A28  EF00  F015         	goto	l2947
  3497  002A2C                     u2890:
  3498  002A2C                     l118:
  3499                           
  3500                           ; BSR set to: 0
  3501  002A2C  0012               	return		;funcret
  3502  002A2E                     __end_of_initTabVue:
  3503                           	opt callstack 0
  3504                           
  3505 ;; *************** function _gagne *****************
  3506 ;; Defined at:
  3507 ;;		line 539 in file "main.c"
  3508 ;; Parameters:    Size  Location     Type
  3509 ;;  pMines          2   16[BANK0 ] PTR int 
  3510 ;;		 -> main@nbMines(2), 
  3511 ;; Auto vars:     Size  Location     Type
  3512 ;;  j               1   25[BANK0 ] unsigned char 
  3513 ;;  i               1   24[BANK0 ] unsigned char 
  3514 ;;  resteTuiles     1   23[BANK0 ] unsigned char 
  3515 ;;  compteurBomb    1   22[BANK0 ] unsigned char 
  3516 ;; Return value:  Size  Location     Type
  3517 ;;                  1    wreg      unsigned char 
  3518 ;; Registers used:
  3519 ;;		wreg, fsr1l, fsr1h, fsr2l, fsr2h, status,2, status,0, tblptrl, tblptrh, tblptru, prodl, prodh, cstack
  3520 ;; Tracked objects:
  3521 ;;		On entry : 0/0
  3522 ;;		On exit  : 0/0
  3523 ;;		Unchanged: 0/0
  3524 ;; Data sizes:     COMRAM   BANK0   BANK1   BANK2   BANK3   BANK4   BANK5
  3525 ;;      Params:         0       2       0       0       0       0       0
  3526 ;;      Locals:         0       4       0       0       0       0       0
  3527 ;;      Temps:          0       4       0       0       0       0       0
  3528 ;;      Totals:         0      10       0       0       0       0       0
  3529 ;;Total ram usage:       10 bytes
  3530 ;; Hardware stack levels used:    1
  3531 ;; Hardware stack levels required when called:    6
  3532 ;; This function calls:
  3533 ;;		_afficheGagne
  3534 ;; This function is called by:
  3535 ;;		_main
  3536 ;; This function uses a non-reentrant model
  3537 ;;
  3538                           
  3539                           	psect	text18
  3540  001CF8                     __ptext18:
  3541                           	opt callstack 0
  3542  001CF8                     _gagne:
  3543                           	opt callstack 24
  3544  001CF8                     
  3545                           ;main.c: 541: unsigned char compteurBombe=0;
  3546  001CF8  0E00               	movlw	0
  3547  001CFA  0100               	movlb	0	; force () banked
  3548  001CFC  6FCA               	movwf	gagne@compteurBombe& (0+255),b
  3549                           
  3550                           ;main.c: 542: unsigned char resteTuiles=0;
  3551  001CFE  0E00               	movlw	0
  3552  001D00  0100               	movlb	0	; force () banked
  3553  001D02  6FCB               	movwf	gagne@resteTuiles& (0+255),b
  3554                           
  3555                           ;main.c: 543: unsigned char i=0;
  3556  001D04  0E00               	movlw	0
  3557  001D06  0100               	movlb	0	; force () banked
  3558  001D08  6FCC               	movwf	gagne@i& (0+255),b
  3559                           
  3560                           ;main.c: 544: unsigned char j=0;
  3561  001D0A  0E00               	movlw	0
  3562  001D0C  0100               	movlb	0	; force () banked
  3563  001D0E  6FCD               	movwf	gagne@j& (0+255),b
  3564                           
  3565                           ;main.c: 545: while((i<4)||(j<20))
  3566  001D10  EF77  F00F         	goto	l3089
  3567  001D14                     l3057:
  3568                           
  3569                           ; BSR set to: 0
  3570  001D14  0E03               	movlw	3
  3571  001D16  0100               	movlb	0	; force () banked
  3572  001D18  65CC               	cpfsgt	gagne@i& (0+255),b
  3573  001D1A  EF91  F00E         	goto	u3111
  3574  001D1E  EF93  F00E         	goto	u3110
  3575  001D22                     u3111:
  3576  001D22  EF95  F00E         	goto	l3061
  3577  001D26                     u3110:
  3578  001D26  EF77  F00F         	goto	l3089
  3579  001D2A                     l3061:
  3580                           
  3581                           ; BSR set to: 0
  3582                           ;main.c: 548: {;main.c: 549: for(j=0;j<20;j++)
  3583  001D2A  0E00               	movlw	0
  3584  001D2C  0100               	movlb	0	; force () banked
  3585  001D2E  6FCD               	movwf	gagne@j& (0+255),b
  3586  001D30                     
  3587                           ; BSR set to: 0
  3588  001D30  0E13               	movlw	19
  3589  001D32  0100               	movlb	0	; force () banked
  3590  001D34  65CD               	cpfsgt	gagne@j& (0+255),b
  3591  001D36  EF9F  F00E         	goto	u3121
  3592  001D3A  EFA1  F00E         	goto	u3120
  3593  001D3E                     u3121:
  3594  001D3E  EFA3  F00E         	goto	l3067
  3595  001D42                     u3120:
  3596  001D42  EF6C  F00F         	goto	l3085
  3597  001D46                     l3067:
  3598                           
  3599                           ; BSR set to: 0
  3600                           ;main.c: 550: {;main.c: 551: if((m_tabVue[i][j]==1||m_tabVue[i][j]==3)&&m_tabMines[i][j]
      +                          ==2)
  3601  001D46  0100               	movlb	0	; force () banked
  3602  001D48  51CC               	movf	gagne@i& (0+255),w,b
  3603  001D4A  0D15               	mullw	21
  3604  001D4C  0E9C               	movlw	low _m_tabVue
  3605  001D4E  0100               	movlb	0	; force () banked
  3606  001D50  6FC6               	movwf	??_gagne& (0+255),b
  3607  001D52  0E01               	movlw	high _m_tabVue
  3608  001D54  6FC7               	movwf	(??_gagne+1)& (0+255),b
  3609  001D56  50F3               	movf	243,w,c
  3610  001D58  27C6               	addwf	??_gagne& (0+255),f,b
  3611  001D5A  50F4               	movf	244,w,c
  3612  001D5C  23C7               	addwfc	(??_gagne+1)& (0+255),f,b
  3613  001D5E  0100               	movlb	0	; force () banked
  3614  001D60  51CD               	movf	gagne@j& (0+255),w,b
  3615  001D62  0100               	movlb	0	; force () banked
  3616  001D64  25C6               	addwf	??_gagne& (0+255),w,b
  3617  001D66  6ED9               	movwf	fsr2l,c
  3618  001D68  0100               	movlb	0	; force () banked
  3619  001D6A  0E00               	movlw	0
  3620  001D6C  0100               	movlb	0	; force () banked
  3621  001D6E  21C7               	addwfc	(??_gagne+1)& (0+255),w,b
  3622  001D70  6EDA               	movwf	fsr2h,c
  3623  001D72  04DE               	decf	postinc2,w,c
  3624  001D74  B4D8               	btfsc	status,2,c
  3625  001D76  EFBF  F00E         	goto	u3131
  3626  001D7A  EFC1  F00E         	goto	u3130
  3627  001D7E                     u3131:
  3628  001D7E  EFE0  F00E         	goto	l3071
  3629  001D82                     u3130:
  3630  001D82                     
  3631                           ; BSR set to: 0
  3632  001D82  0100               	movlb	0	; force () banked
  3633  001D84  51CC               	movf	gagne@i& (0+255),w,b
  3634  001D86  0D15               	mullw	21
  3635  001D88  0E9C               	movlw	low _m_tabVue
  3636  001D8A  0100               	movlb	0	; force () banked
  3637  001D8C  6FC6               	movwf	??_gagne& (0+255),b
  3638  001D8E  0E01               	movlw	high _m_tabVue
  3639  001D90  6FC7               	movwf	(??_gagne+1)& (0+255),b
  3640  001D92  50F3               	movf	243,w,c
  3641  001D94  27C6               	addwf	??_gagne& (0+255),f,b
  3642  001D96  50F4               	movf	244,w,c
  3643  001D98  23C7               	addwfc	(??_gagne+1)& (0+255),f,b
  3644  001D9A  0100               	movlb	0	; force () banked
  3645  001D9C  51CD               	movf	gagne@j& (0+255),w,b
  3646  001D9E  0100               	movlb	0	; force () banked
  3647  001DA0  25C6               	addwf	??_gagne& (0+255),w,b
  3648  001DA2  6ED9               	movwf	fsr2l,c
  3649  001DA4  0100               	movlb	0	; force () banked
  3650  001DA6  0E00               	movlw	0
  3651  001DA8  0100               	movlb	0	; force () banked
  3652  001DAA  21C7               	addwfc	(??_gagne+1)& (0+255),w,b
  3653  001DAC  6EDA               	movwf	fsr2h,c
  3654  001DAE  0E03               	movlw	3
  3655  001DB0  18DE               	xorwf	postinc2,w,c
  3656  001DB2  A4D8               	btfss	status,2,c
  3657  001DB4  EFDE  F00E         	goto	u3141
  3658  001DB8  EFE0  F00E         	goto	u3140
  3659  001DBC                     u3141:
  3660  001DBC  EF03  F00F         	goto	l3075
  3661  001DC0                     u3140:
  3662  001DC0                     l3071:
  3663                           
  3664                           ; BSR set to: 0
  3665  001DC0  0100               	movlb	0	; force () banked
  3666  001DC2  51CC               	movf	gagne@i& (0+255),w,b
  3667  001DC4  0D15               	mullw	21
  3668  001DC6  0E60               	movlw	low _m_tabMines
  3669  001DC8  0100               	movlb	0	; force () banked
  3670  001DCA  6FC6               	movwf	??_gagne& (0+255),b
  3671  001DCC  0E00               	movlw	high _m_tabMines
  3672  001DCE  6FC7               	movwf	(??_gagne+1)& (0+255),b
  3673  001DD0  50F3               	movf	243,w,c
  3674  001DD2  27C6               	addwf	??_gagne& (0+255),f,b
  3675  001DD4  50F4               	movf	244,w,c
  3676  001DD6  23C7               	addwfc	(??_gagne+1)& (0+255),f,b
  3677  001DD8  0100               	movlb	0	; force () banked
  3678  001DDA  51CD               	movf	gagne@j& (0+255),w,b
  3679  001DDC  0100               	movlb	0	; force () banked
  3680  001DDE  25C6               	addwf	??_gagne& (0+255),w,b
  3681  001DE0  6ED9               	movwf	fsr2l,c
  3682  001DE2  0100               	movlb	0	; force () banked
  3683  001DE4  0E00               	movlw	0
  3684  001DE6  0100               	movlb	0	; force () banked
  3685  001DE8  21C7               	addwfc	(??_gagne+1)& (0+255),w,b
  3686  001DEA  6EDA               	movwf	fsr2h,c
  3687  001DEC  0E02               	movlw	2
  3688  001DEE  18DE               	xorwf	postinc2,w,c
  3689  001DF0  A4D8               	btfss	status,2,c
  3690  001DF2  EFFD  F00E         	goto	u3151
  3691  001DF6  EFFF  F00E         	goto	u3150
  3692  001DFA                     u3151:
  3693  001DFA  EF03  F00F         	goto	l3075
  3694  001DFE                     u3150:
  3695  001DFE                     
  3696                           ; BSR set to: 0
  3697                           ;main.c: 552: {;main.c: 553: compteurBombe++;
  3698  001DFE  0100               	movlb	0	; force () banked
  3699  001E00  2BCA               	incf	gagne@compteurBombe& (0+255),f,b
  3700                           
  3701                           ;main.c: 554: }
  3702  001E02  EF61  F00F         	goto	l259
  3703  001E06                     l3075:
  3704                           
  3705                           ; BSR set to: 0
  3706                           ;main.c: 555: else if((m_tabVue[i][j]==1||m_tabVue[i][j]==3)&&m_tabMines[i][j]!=2)
  3707  001E06  0100               	movlb	0	; force () banked
  3708  001E08  51CC               	movf	gagne@i& (0+255),w,b
  3709  001E0A  0D15               	mullw	21
  3710  001E0C  0E9C               	movlw	low _m_tabVue
  3711  001E0E  0100               	movlb	0	; force () banked
  3712  001E10  6FC6               	movwf	??_gagne& (0+255),b
  3713  001E12  0E01               	movlw	high _m_tabVue
  3714  001E14  6FC7               	movwf	(??_gagne+1)& (0+255),b
  3715  001E16  50F3               	movf	243,w,c
  3716  001E18  27C6               	addwf	??_gagne& (0+255),f,b
  3717  001E1A  50F4               	movf	244,w,c
  3718  001E1C  23C7               	addwfc	(??_gagne+1)& (0+255),f,b
  3719  001E1E  0100               	movlb	0	; force () banked
  3720  001E20  51CD               	movf	gagne@j& (0+255),w,b
  3721  001E22  0100               	movlb	0	; force () banked
  3722  001E24  25C6               	addwf	??_gagne& (0+255),w,b
  3723  001E26  6ED9               	movwf	fsr2l,c
  3724  001E28  0100               	movlb	0	; force () banked
  3725  001E2A  0E00               	movlw	0
  3726  001E2C  0100               	movlb	0	; force () banked
  3727  001E2E  21C7               	addwfc	(??_gagne+1)& (0+255),w,b
  3728  001E30  6EDA               	movwf	fsr2h,c
  3729  001E32  04DE               	decf	postinc2,w,c
  3730  001E34  B4D8               	btfsc	status,2,c
  3731  001E36  EF1F  F00F         	goto	u3161
  3732  001E3A  EF21  F00F         	goto	u3160
  3733  001E3E                     u3161:
  3734  001E3E  EF40  F00F         	goto	l3079
  3735  001E42                     u3160:
  3736  001E42                     
  3737                           ; BSR set to: 0
  3738  001E42  0100               	movlb	0	; force () banked
  3739  001E44  51CC               	movf	gagne@i& (0+255),w,b
  3740  001E46  0D15               	mullw	21
  3741  001E48  0E9C               	movlw	low _m_tabVue
  3742  001E4A  0100               	movlb	0	; force () banked
  3743  001E4C  6FC6               	movwf	??_gagne& (0+255),b
  3744  001E4E  0E01               	movlw	high _m_tabVue
  3745  001E50  6FC7               	movwf	(??_gagne+1)& (0+255),b
  3746  001E52  50F3               	movf	243,w,c
  3747  001E54  27C6               	addwf	??_gagne& (0+255),f,b
  3748  001E56  50F4               	movf	244,w,c
  3749  001E58  23C7               	addwfc	(??_gagne+1)& (0+255),f,b
  3750  001E5A  0100               	movlb	0	; force () banked
  3751  001E5C  51CD               	movf	gagne@j& (0+255),w,b
  3752  001E5E  0100               	movlb	0	; force () banked
  3753  001E60  25C6               	addwf	??_gagne& (0+255),w,b
  3754  001E62  6ED9               	movwf	fsr2l,c
  3755  001E64  0100               	movlb	0	; force () banked
  3756  001E66  0E00               	movlw	0
  3757  001E68  0100               	movlb	0	; force () banked
  3758  001E6A  21C7               	addwfc	(??_gagne+1)& (0+255),w,b
  3759  001E6C  6EDA               	movwf	fsr2h,c
  3760  001E6E  0E03               	movlw	3
  3761  001E70  18DE               	xorwf	postinc2,w,c
  3762  001E72  A4D8               	btfss	status,2,c
  3763  001E74  EF3E  F00F         	goto	u3171
  3764  001E78  EF40  F00F         	goto	u3170
  3765  001E7C                     u3171:
  3766  001E7C  EF61  F00F         	goto	l259
  3767  001E80                     u3170:
  3768  001E80                     l3079:
  3769                           
  3770                           ; BSR set to: 0
  3771  001E80  0100               	movlb	0	; force () banked
  3772  001E82  51CC               	movf	gagne@i& (0+255),w,b
  3773  001E84  0D15               	mullw	21
  3774  001E86  0E60               	movlw	low _m_tabMines
  3775  001E88  0100               	movlb	0	; force () banked
  3776  001E8A  6FC6               	movwf	??_gagne& (0+255),b
  3777  001E8C  0E00               	movlw	high _m_tabMines
  3778  001E8E  6FC7               	movwf	(??_gagne+1)& (0+255),b
  3779  001E90  50F3               	movf	243,w,c
  3780  001E92  27C6               	addwf	??_gagne& (0+255),f,b
  3781  001E94  50F4               	movf	244,w,c
  3782  001E96  23C7               	addwfc	(??_gagne+1)& (0+255),f,b
  3783  001E98  0100               	movlb	0	; force () banked
  3784  001E9A  51CD               	movf	gagne@j& (0+255),w,b
  3785  001E9C  0100               	movlb	0	; force () banked
  3786  001E9E  25C6               	addwf	??_gagne& (0+255),w,b
  3787  001EA0  6ED9               	movwf	fsr2l,c
  3788  001EA2  0100               	movlb	0	; force () banked
  3789  001EA4  0E00               	movlw	0
  3790  001EA6  0100               	movlb	0	; force () banked
  3791  001EA8  21C7               	addwfc	(??_gagne+1)& (0+255),w,b
  3792  001EAA  6EDA               	movwf	fsr2h,c
  3793  001EAC  0E02               	movlw	2
  3794  001EAE  18DE               	xorwf	postinc2,w,c
  3795  001EB0  B4D8               	btfsc	status,2,c
  3796  001EB2  EF5D  F00F         	goto	u3181
  3797  001EB6  EF5F  F00F         	goto	u3180
  3798  001EBA                     u3181:
  3799  001EBA  EF61  F00F         	goto	l259
  3800  001EBE                     u3180:
  3801  001EBE                     
  3802                           ; BSR set to: 0
  3803                           ;main.c: 556: resteTuiles++;
  3804  001EBE  0100               	movlb	0	; force () banked
  3805  001EC0  2BCB               	incf	gagne@resteTuiles& (0+255),f,b
  3806  001EC2                     l259:
  3807                           
  3808                           ; BSR set to: 0
  3809  001EC2  0100               	movlb	0	; force () banked
  3810  001EC4  2BCD               	incf	gagne@j& (0+255),f,b
  3811  001EC6                     
  3812                           ; BSR set to: 0
  3813  001EC6  0E13               	movlw	19
  3814  001EC8  0100               	movlb	0	; force () banked
  3815  001ECA  65CD               	cpfsgt	gagne@j& (0+255),b
  3816  001ECC  EF6A  F00F         	goto	u3191
  3817  001ED0  EF6C  F00F         	goto	u3190
  3818  001ED4                     u3191:
  3819  001ED4  EFA3  F00E         	goto	l3067
  3820  001ED8                     u3190:
  3821  001ED8                     l3085:
  3822                           
  3823                           ; BSR set to: 0
  3824  001ED8  0100               	movlb	0	; force () banked
  3825  001EDA  2BCC               	incf	gagne@i& (0+255),f,b
  3826  001EDC                     
  3827                           ; BSR set to: 0
  3828  001EDC  0E03               	movlw	3
  3829  001EDE  0100               	movlb	0	; force () banked
  3830  001EE0  65CC               	cpfsgt	gagne@i& (0+255),b
  3831  001EE2  EF75  F00F         	goto	u3201
  3832  001EE6  EF77  F00F         	goto	u3200
  3833  001EEA                     u3201:
  3834  001EEA  EF95  F00E         	goto	l3061
  3835  001EEE                     u3200:
  3836  001EEE                     l3089:
  3837                           
  3838                           ; BSR set to: 0
  3839  001EEE  0E03               	movlw	3
  3840  001EF0  0100               	movlb	0	; force () banked
  3841  001EF2  65CC               	cpfsgt	gagne@i& (0+255),b
  3842  001EF4  EF7E  F00F         	goto	u3211
  3843  001EF8  EF80  F00F         	goto	u3210
  3844  001EFC                     u3211:
  3845  001EFC  EF8A  F00E         	goto	l3057
  3846  001F00                     u3210:
  3847  001F00                     
  3848                           ; BSR set to: 0
  3849  001F00  0E13               	movlw	19
  3850  001F02  0100               	movlb	0	; force () banked
  3851  001F04  65CD               	cpfsgt	gagne@j& (0+255),b
  3852  001F06  EF87  F00F         	goto	u3221
  3853  001F0A  EF89  F00F         	goto	u3220
  3854  001F0E                     u3221:
  3855  001F0E  EF8A  F00E         	goto	l3057
  3856  001F12                     u3220:
  3857  001F12                     
  3858                           ; BSR set to: 0
  3859                           ;main.c: 557: };main.c: 558: };main.c: 559: };main.c: 560: if(compteurBombe==(*pMines)&&
      +                          (!resteTuiles))
  3860  001F12  C0C4  FFD9         	movff	gagne@pMines,fsr2l
  3861  001F16  C0C5  FFDA         	movff	gagne@pMines+1,fsr2h
  3862  001F1A  0100               	movlb	0	; force () banked
  3863  001F1C  51CA               	movf	gagne@compteurBombe& (0+255),w,b
  3864  001F1E  0100               	movlb	0	; force () banked
  3865  001F20  6FC8               	movwf	(??_gagne+2)& (0+255),b
  3866  001F22  6BC9               	clrf	(??_gagne+3)& (0+255),b
  3867  001F24  50DE               	movf	postinc2,w,c
  3868  001F26  19C8               	xorwf	(??_gagne+2)& (0+255),w,b
  3869  001F28  E107               	bnz	u3231
  3870  001F2A  50DE               	movf	postinc2,w,c
  3871  001F2C  19C9               	xorwf	(??_gagne+3)& (0+255),w,b
  3872  001F2E  A4D8               	btfss	status,2,c
  3873  001F30  EF9C  F00F         	goto	u3231
  3874  001F34  EF9E  F00F         	goto	u3230
  3875  001F38                     u3231:
  3876  001F38  EFB3  F00F         	goto	l3107
  3877  001F3C                     u3230:
  3878  001F3C                     
  3879                           ; BSR set to: 0
  3880  001F3C  0100               	movlb	0	; force () banked
  3881  001F3E  51CB               	movf	gagne@resteTuiles& (0+255),w,b
  3882  001F40  A4D8               	btfss	status,2,c
  3883  001F42  EFA5  F00F         	goto	u3241
  3884  001F46  EFA7  F00F         	goto	u3240
  3885  001F4A                     u3241:
  3886  001F4A  EFB3  F00F         	goto	l3107
  3887  001F4E                     u3240:
  3888  001F4E                     
  3889                           ; BSR set to: 0
  3890                           ;main.c: 561: {;main.c: 562: afficheGagne();
  3891  001F4E  ECB5  F018         	call	_afficheGagne	;wreg free
  3892  001F52                     
  3893                           ;main.c: 563: (*pMines)++;
  3894  001F52  C0C4  FFD9         	movff	gagne@pMines,fsr2l
  3895  001F56  C0C5  FFDA         	movff	gagne@pMines+1,fsr2h
  3896  001F5A  2ADE               	incf	postinc2,f,c
  3897  001F5C  0E00               	movlw	0
  3898  001F5E  22DD               	addwfc	postdec2,f,c
  3899  001F60                     
  3900                           ;main.c: 564: return 1;
  3901  001F60  0E01               	movlw	1
  3902  001F62  EFB4  F00F         	goto	l265
  3903  001F66                     l3107:
  3904                           
  3905                           ; BSR set to: 0
  3906                           ;main.c: 566: else;main.c: 567: return 0;
  3907  001F66  0E00               	movlw	0
  3908  001F68                     l265:
  3909  001F68  0012               	return		;funcret
  3910  001F6A                     __end_of_gagne:
  3911                           	opt callstack 0
  3912                           
  3913 ;; *************** function _afficheGagne *****************
  3914 ;; Defined at:
  3915 ;;		line 570 in file "main.c"
  3916 ;; Parameters:    Size  Location     Type
  3917 ;;		None
  3918 ;; Auto vars:     Size  Location     Type
  3919 ;;		None
  3920 ;; Return value:  Size  Location     Type
  3921 ;;                  1    wreg      void 
  3922 ;; Registers used:
  3923 ;;		wreg, fsr1l, fsr1h, status,2, status,0, tblptrl, tblptrh, tblptru, cstack
  3924 ;; Tracked objects:
  3925 ;;		On entry : 0/0
  3926 ;;		On exit  : 0/0
  3927 ;;		Unchanged: 0/0
  3928 ;; Data sizes:     COMRAM   BANK0   BANK1   BANK2   BANK3   BANK4   BANK5
  3929 ;;      Params:         0       0       0       0       0       0       0
  3930 ;;      Locals:         0       0       0       0       0       0       0
  3931 ;;      Temps:          0       2       0       0       0       0       0
  3932 ;;      Totals:         0       2       0       0       0       0       0
  3933 ;;Total ram usage:        2 bytes
  3934 ;; Hardware stack levels used:    1
  3935 ;; Hardware stack levels required when called:    5
  3936 ;; This function calls:
  3937 ;;		_lcd_effaceAffichage
  3938 ;;		_lcd_gotoXY
  3939 ;;		_lcd_putMessage
  3940 ;; This function is called by:
  3941 ;;		_gagne
  3942 ;; This function uses a non-reentrant model
  3943 ;;
  3944                           
  3945                           	psect	text19
  3946  00316A                     __ptext19:
  3947                           	opt callstack 0
  3948  00316A                     _afficheGagne:
  3949                           	opt callstack 24
  3950  00316A                     
  3951                           ;main.c: 572: lcd_effaceAffichage();
  3952  00316A  EC46  F01A         	call	_lcd_effaceAffichage	;wreg free
  3953                           
  3954                           ;main.c: 573: lcd_gotoXY(5,2);
  3955  00316E  0E02               	movlw	2
  3956  003170  0100               	movlb	0	; force () banked
  3957  003172  6FB7               	movwf	lcd_gotoXY@y& (0+255),b
  3958  003174  0E05               	movlw	5
  3959  003176  EC6D  F017         	call	_lcd_gotoXY
  3960  00317A                     
  3961                           ;main.c: 574: lcd_putMessage("YOU WIN!");
  3962  00317A  0E29               	movlw	low STR_1
  3963  00317C  0100               	movlb	0	; force () banked
  3964  00317E  6FB9               	movwf	lcd_putMessage@chaine& (0+255),b
  3965  003180  0E06               	movlw	high STR_1
  3966  003182  6FBA               	movwf	(lcd_putMessage@chaine+1)& (0+255),b
  3967  003184  51B9               	movf	lcd_putMessage@chaine& (0+255),w,b
  3968  003186  11BA               	iorwf	(lcd_putMessage@chaine+1)& (0+255),w,b
  3969  003188  A4D8               	btfss	status,2,c
  3970  00318A  0E00               	movlw	low (__mediumconst shr (0+16))
  3971  00318C  6FBB               	movwf	(lcd_putMessage@chaine+2)& (0+255),b
  3972  00318E  ECDB  F015         	call	_lcd_putMessage	;wreg free
  3973  003192                     
  3974                           ;main.c: 575: lcd_gotoXY(6,3);
  3975  003192  0E03               	movlw	3
  3976  003194  0100               	movlb	0	; force () banked
  3977  003196  6FB7               	movwf	lcd_gotoXY@y& (0+255),b
  3978  003198  0E06               	movlw	6
  3979  00319A  EC6D  F017         	call	_lcd_gotoXY
  3980                           
  3981                           ;main.c: 576: lcd_putMessage("+1 Mine");
  3982  00319E  0E32               	movlw	low STR_2
  3983  0031A0  0100               	movlb	0	; force () banked
  3984  0031A2  6FB9               	movwf	lcd_putMessage@chaine& (0+255),b
  3985  0031A4  0E06               	movlw	high STR_2
  3986  0031A6  6FBA               	movwf	(lcd_putMessage@chaine+1)& (0+255),b
  3987  0031A8  51B9               	movf	lcd_putMessage@chaine& (0+255),w,b
  3988  0031AA  11BA               	iorwf	(lcd_putMessage@chaine+1)& (0+255),w,b
  3989  0031AC  A4D8               	btfss	status,2,c
  3990  0031AE  0E00               	movlw	low (__mediumconst shr (0+16))
  3991  0031B0  6FBB               	movwf	(lcd_putMessage@chaine+2)& (0+255),b
  3992  0031B2  ECDB  F015         	call	_lcd_putMessage	;wreg free
  3993  0031B6                     
  3994                           ;main.c: 577: _delay((unsigned long)((2500)*(1000000/4000.0)));
  3995  0031B6  0E04               	movlw	4
  3996  0031B8  0100               	movlb	0	; force () banked
  3997  0031BA  6FC3               	movwf	(??_afficheGagne+1)& (0+255),b
  3998  0031BC  0E2C               	movlw	44
  3999  0031BE  6FC2               	movwf	??_afficheGagne& (0+255),b
  4000  0031C0  0EAB               	movlw	171
  4001  0031C2                     u3487:
  4002  0031C2  2EE8               	decfsz	wreg,f,c
  4003  0031C4  D7FE               	bra	u3487
  4004  0031C6  2FC2               	decfsz	??_afficheGagne& (0+255),f,b
  4005  0031C8  D7FC               	bra	u3487
  4006  0031CA  2FC3               	decfsz	(??_afficheGagne+1)& (0+255),f,b
  4007  0031CC  D7FA               	bra	u3487
  4008  0031CE  F000 F000          	nop2	
  4009  0031D2  0012               	return		;funcret
  4010  0031D4                     __end_of_afficheGagne:
  4011                           	opt callstack 0
  4012                           
  4013 ;; *************** function _lcd_effaceAffichage *****************
  4014 ;; Defined at:
  4015 ;;		line 277 in file "Lcd4Lignes.c"
  4016 ;; Parameters:    Size  Location     Type
  4017 ;;		None
  4018 ;; Auto vars:     Size  Location     Type
  4019 ;;		None
  4020 ;; Return value:  Size  Location     Type
  4021 ;;                  1    wreg      void 
  4022 ;; Registers used:
  4023 ;;		wreg, status,2, status,0, cstack
  4024 ;; Tracked objects:
  4025 ;;		On entry : 0/0
  4026 ;;		On exit  : 0/0
  4027 ;;		Unchanged: 0/0
  4028 ;; Data sizes:     COMRAM   BANK0   BANK1   BANK2   BANK3   BANK4   BANK5
  4029 ;;      Params:         0       0       0       0       0       0       0
  4030 ;;      Locals:         0       0       0       0       0       0       0
  4031 ;;      Temps:          0       0       0       0       0       0       0
  4032 ;;      Totals:         0       0       0       0       0       0       0
  4033 ;;Total ram usage:        0 bytes
  4034 ;; Hardware stack levels used:    1
  4035 ;; Hardware stack levels required when called:    3
  4036 ;; This function calls:
  4037 ;;		_lcd_wrCom
  4038 ;; This function is called by:
  4039 ;;		_menuAccueil
  4040 ;;		_afficheGagne
  4041 ;; This function uses a non-reentrant model
  4042 ;;
  4043                           
  4044                           	psect	text20
  4045  00348C                     __ptext20:
  4046                           	opt callstack 0
  4047  00348C                     _lcd_effaceAffichage:
  4048                           	opt callstack 26
  4049  00348C                     
  4050                           ;Lcd4Lignes.c: 279: lcd_wrCom(0x01);
  4051  00348C  0E01               	movlw	1
  4052  00348E  EC4A  F018         	call	_lcd_wrCom
  4053                           
  4054                           ;Lcd4Lignes.c: 280: lcd_wrCom(0x80);
  4055  003492  0E80               	movlw	128
  4056  003494  EC4A  F018         	call	_lcd_wrCom
  4057  003498  0012               	return		;funcret
  4058  00349A                     __end_of_lcd_effaceAffichage:
  4059                           	opt callstack 0
  4060                           
  4061 ;; *************** function _deplace *****************
  4062 ;; Defined at:
  4063 ;;		line 409 in file "main.c"
  4064 ;; Parameters:    Size  Location     Type
  4065 ;;  x               2    5[BANK0 ] PTR unsigned char 
  4066 ;;		 -> main@posX(1), 
  4067 ;;  y               2    7[BANK0 ] PTR unsigned char 
  4068 ;;		 -> main@posY(1), 
  4069 ;; Auto vars:     Size  Location     Type
  4070 ;;		None
  4071 ;; Return value:  Size  Location     Type
  4072 ;;                  1    wreg      void 
  4073 ;; Registers used:
  4074 ;;		wreg, fsr2l, fsr2h, status,2, status,0, cstack
  4075 ;; Tracked objects:
  4076 ;;		On entry : 0/0
  4077 ;;		On exit  : 0/0
  4078 ;;		Unchanged: 0/0
  4079 ;; Data sizes:     COMRAM   BANK0   BANK1   BANK2   BANK3   BANK4   BANK5
  4080 ;;      Params:         0       4       0       0       0       0       0
  4081 ;;      Locals:         0       0       0       0       0       0       0
  4082 ;;      Temps:          0       1       0       0       0       0       0
  4083 ;;      Totals:         0       5       0       0       0       0       0
  4084 ;;Total ram usage:        5 bytes
  4085 ;; Hardware stack levels used:    1
  4086 ;; Hardware stack levels required when called:    4
  4087 ;; This function calls:
  4088 ;;		_getAnalog
  4089 ;;		_lcd_gotoXY
  4090 ;; This function is called by:
  4091 ;;		_main
  4092 ;; This function uses a non-reentrant model
  4093 ;;
  4094                           
  4095                           	psect	text21
  4096  0027CA                     __ptext21:
  4097                           	opt callstack 0
  4098  0027CA                     _deplace:
  4099                           	opt callstack 26
  4100  0027CA                     
  4101                           ;main.c: 411: if(getAnalog(7)>180)
  4102  0027CA  0E07               	movlw	7
  4103  0027CC  ECE3  F019         	call	_getAnalog
  4104  0027D0  0100               	movlb	0	; force () banked
  4105  0027D2  6FBD               	movwf	??_deplace& (0+255),b
  4106  0027D4  0EB4               	movlw	180
  4107  0027D6  65BD               	cpfsgt	??_deplace& (0+255),b
  4108  0027D8  EFF0  F013         	goto	u3031
  4109  0027DC  EFF2  F013         	goto	u3030
  4110  0027E0                     u3031:
  4111  0027E0  EF13  F014         	goto	l3033
  4112  0027E4                     u3030:
  4113  0027E4                     
  4114                           ; BSR set to: 0
  4115                           ;main.c: 412: {;main.c: 413: (*x)=(*x)-1;
  4116  0027E4  C0B9  FFD9         	movff	deplace@x,fsr2l
  4117  0027E8  C0BA  FFDA         	movff	deplace@x+1,fsr2h
  4118  0027EC  50DF               	movf	indf2,w,c
  4119  0027EE  0100               	movlb	0	; force () banked
  4120  0027F0  6FBD               	movwf	??_deplace& (0+255),b
  4121  0027F2  05BD               	decf	??_deplace& (0+255),w,b
  4122  0027F4  C0B9  FFD9         	movff	deplace@x,fsr2l
  4123  0027F8  C0BA  FFDA         	movff	deplace@x+1,fsr2h
  4124  0027FC  6EDF               	movwf	indf2,c
  4125  0027FE                     
  4126                           ; BSR set to: 0
  4127                           ;main.c: 414: if((*x)<1)
  4128  0027FE  C0B9  FFD9         	movff	deplace@x,fsr2l
  4129  002802  C0BA  FFDA         	movff	deplace@x+1,fsr2h
  4130  002806  50DF               	movf	indf2,w,c
  4131  002808  A4D8               	btfss	status,2,c
  4132  00280A  EF09  F014         	goto	u3041
  4133  00280E  EF0B  F014         	goto	u3040
  4134  002812                     u3041:
  4135  002812  EF3F  F014         	goto	l3039
  4136  002816                     u3040:
  4137  002816                     
  4138                           ; BSR set to: 0
  4139                           ;main.c: 415: (*x)=20;
  4140  002816  C0B9  FFD9         	movff	deplace@x,fsr2l
  4141  00281A  C0BA  FFDA         	movff	deplace@x+1,fsr2h
  4142  00281E  0E14               	movlw	20
  4143  002820  6EDF               	movwf	indf2,c
  4144  002822  EF3F  F014         	goto	l3039
  4145  002826                     l3033:
  4146                           
  4147                           ; BSR set to: 0
  4148                           ;main.c: 417: else if(getAnalog(7)<80)
  4149  002826  0E07               	movlw	7
  4150  002828  ECE3  F019         	call	_getAnalog
  4151  00282C  0100               	movlb	0	; force () banked
  4152  00282E  6FBD               	movwf	??_deplace& (0+255),b
  4153  002830  0E50               	movlw	80
  4154  002832  61BD               	cpfslt	??_deplace& (0+255),b
  4155  002834  EF1E  F014         	goto	u3051
  4156  002838  EF20  F014         	goto	u3050
  4157  00283C                     u3051:
  4158  00283C  EF3F  F014         	goto	l3039
  4159  002840                     u3050:
  4160  002840                     
  4161                           ; BSR set to: 0
  4162                           ;main.c: 418: {;main.c: 419: (*x)=(*x)+1;
  4163  002840  C0B9  FFD9         	movff	deplace@x,fsr2l
  4164  002844  C0BA  FFDA         	movff	deplace@x+1,fsr2h
  4165  002848  50DF               	movf	indf2,w,c
  4166  00284A  0100               	movlb	0	; force () banked
  4167  00284C  6FBD               	movwf	??_deplace& (0+255),b
  4168  00284E  29BD               	incf	??_deplace& (0+255),w,b
  4169  002850  C0B9  FFD9         	movff	deplace@x,fsr2l
  4170  002854  C0BA  FFDA         	movff	deplace@x+1,fsr2h
  4171  002858  6EDF               	movwf	indf2,c
  4172                           
  4173                           ;main.c: 420: if((*x)>20)
  4174  00285A  C0B9  FFD9         	movff	deplace@x,fsr2l
  4175  00285E  C0BA  FFDA         	movff	deplace@x+1,fsr2h
  4176  002862  0E14               	movlw	20
  4177  002864  64DF               	cpfsgt	indf2,c
  4178  002866  EF37  F014         	goto	u3061
  4179  00286A  EF39  F014         	goto	u3060
  4180  00286E                     u3061:
  4181  00286E  EF3F  F014         	goto	l3039
  4182  002872                     u3060:
  4183  002872                     
  4184                           ; BSR set to: 0
  4185                           ;main.c: 421: (*x)=1;
  4186  002872  C0B9  FFD9         	movff	deplace@x,fsr2l
  4187  002876  C0BA  FFDA         	movff	deplace@x+1,fsr2h
  4188  00287A  0E01               	movlw	1
  4189  00287C  6EDF               	movwf	indf2,c
  4190  00287E                     l3039:
  4191                           
  4192                           ; BSR set to: 0
  4193                           ;main.c: 422: };main.c: 423: if(getAnalog(6)<80)
  4194  00287E  0E06               	movlw	6
  4195  002880  ECE3  F019         	call	_getAnalog
  4196  002884  0100               	movlb	0	; force () banked
  4197  002886  6FBD               	movwf	??_deplace& (0+255),b
  4198  002888  0E50               	movlw	80
  4199  00288A  61BD               	cpfslt	??_deplace& (0+255),b
  4200  00288C  EF4A  F014         	goto	u3071
  4201  002890  EF4C  F014         	goto	u3070
  4202  002894                     u3071:
  4203  002894  EF6D  F014         	goto	l3047
  4204  002898                     u3070:
  4205  002898                     
  4206                           ; BSR set to: 0
  4207                           ;main.c: 424: {;main.c: 425: (*y)=(*y)-1;
  4208  002898  C0BB  FFD9         	movff	deplace@y,fsr2l
  4209  00289C  C0BC  FFDA         	movff	deplace@y+1,fsr2h
  4210  0028A0  50DF               	movf	indf2,w,c
  4211  0028A2  0100               	movlb	0	; force () banked
  4212  0028A4  6FBD               	movwf	??_deplace& (0+255),b
  4213  0028A6  05BD               	decf	??_deplace& (0+255),w,b
  4214  0028A8  C0BB  FFD9         	movff	deplace@y,fsr2l
  4215  0028AC  C0BC  FFDA         	movff	deplace@y+1,fsr2h
  4216  0028B0  6EDF               	movwf	indf2,c
  4217  0028B2                     
  4218                           ; BSR set to: 0
  4219                           ;main.c: 426: if((*y)<1)
  4220  0028B2  C0BB  FFD9         	movff	deplace@y,fsr2l
  4221  0028B6  C0BC  FFDA         	movff	deplace@y+1,fsr2h
  4222  0028BA  50DF               	movf	indf2,w,c
  4223  0028BC  A4D8               	btfss	status,2,c
  4224  0028BE  EF63  F014         	goto	u3081
  4225  0028C2  EF65  F014         	goto	u3080
  4226  0028C6                     u3081:
  4227  0028C6  EF99  F014         	goto	l3053
  4228  0028CA                     u3080:
  4229  0028CA                     
  4230                           ; BSR set to: 0
  4231                           ;main.c: 427: (*y)=4;
  4232  0028CA  C0BB  FFD9         	movff	deplace@y,fsr2l
  4233  0028CE  C0BC  FFDA         	movff	deplace@y+1,fsr2h
  4234  0028D2  0E04               	movlw	4
  4235  0028D4  6EDF               	movwf	indf2,c
  4236  0028D6  EF99  F014         	goto	l3053
  4237  0028DA                     l3047:
  4238                           
  4239                           ; BSR set to: 0
  4240                           ;main.c: 429: else if(getAnalog(6)>180)
  4241  0028DA  0E06               	movlw	6
  4242  0028DC  ECE3  F019         	call	_getAnalog
  4243  0028E0  0100               	movlb	0	; force () banked
  4244  0028E2  6FBD               	movwf	??_deplace& (0+255),b
  4245  0028E4  0EB4               	movlw	180
  4246  0028E6  65BD               	cpfsgt	??_deplace& (0+255),b
  4247  0028E8  EF78  F014         	goto	u3091
  4248  0028EC  EF7A  F014         	goto	u3090
  4249  0028F0                     u3091:
  4250  0028F0  EF99  F014         	goto	l3053
  4251  0028F4                     u3090:
  4252  0028F4                     
  4253                           ; BSR set to: 0
  4254                           ;main.c: 430: {;main.c: 431: (*y)=(*y)+1;
  4255  0028F4  C0BB  FFD9         	movff	deplace@y,fsr2l
  4256  0028F8  C0BC  FFDA         	movff	deplace@y+1,fsr2h
  4257  0028FC  50DF               	movf	indf2,w,c
  4258  0028FE  0100               	movlb	0	; force () banked
  4259  002900  6FBD               	movwf	??_deplace& (0+255),b
  4260  002902  29BD               	incf	??_deplace& (0+255),w,b
  4261  002904  C0BB  FFD9         	movff	deplace@y,fsr2l
  4262  002908  C0BC  FFDA         	movff	deplace@y+1,fsr2h
  4263  00290C  6EDF               	movwf	indf2,c
  4264                           
  4265                           ;main.c: 432: if((*y)>4)
  4266  00290E  C0BB  FFD9         	movff	deplace@y,fsr2l
  4267  002912  C0BC  FFDA         	movff	deplace@y+1,fsr2h
  4268  002916  0E04               	movlw	4
  4269  002918  64DF               	cpfsgt	indf2,c
  4270  00291A  EF91  F014         	goto	u3101
  4271  00291E  EF93  F014         	goto	u3100
  4272  002922                     u3101:
  4273  002922  EF99  F014         	goto	l3053
  4274  002926                     u3100:
  4275  002926                     
  4276                           ; BSR set to: 0
  4277                           ;main.c: 433: (*y)=1;
  4278  002926  C0BB  FFD9         	movff	deplace@y,fsr2l
  4279  00292A  C0BC  FFDA         	movff	deplace@y+1,fsr2h
  4280  00292E  0E01               	movlw	1
  4281  002930  6EDF               	movwf	indf2,c
  4282  002932                     l3053:
  4283                           
  4284                           ; BSR set to: 0
  4285                           ;main.c: 434: };main.c: 435: lcd_gotoXY((*x),(*y));
  4286  002932  C0BB  FFD9         	movff	deplace@y,fsr2l
  4287  002936  C0BC  FFDA         	movff	deplace@y+1,fsr2h
  4288  00293A  50DF               	movf	indf2,w,c
  4289  00293C  0100               	movlb	0	; force () banked
  4290  00293E  6FB7               	movwf	lcd_gotoXY@y& (0+255),b
  4291  002940  C0B9  FFD9         	movff	deplace@x,fsr2l
  4292  002944  C0BA  FFDA         	movff	deplace@x+1,fsr2h
  4293  002948  50DF               	movf	indf2,w,c
  4294  00294A  EC6D  F017         	call	_lcd_gotoXY
  4295  00294E  0012               	return		;funcret
  4296  002950                     __end_of_deplace:
  4297                           	opt callstack 0
  4298                           
  4299 ;; *************** function _getAnalog *****************
  4300 ;; Defined at:
  4301 ;;		line 585 in file "main.c"
  4302 ;; Parameters:    Size  Location     Type
  4303 ;;  canal           1    wreg     unsigned char 
  4304 ;; Auto vars:     Size  Location     Type
  4305 ;;  canal           1    1[BANK0 ] unsigned char 
  4306 ;; Return value:  Size  Location     Type
  4307 ;;                  1    wreg      unsigned char 
  4308 ;; Registers used:
  4309 ;;		wreg, status,2, status,0
  4310 ;; Tracked objects:
  4311 ;;		On entry : 0/0
  4312 ;;		On exit  : 0/0
  4313 ;;		Unchanged: 0/0
  4314 ;; Data sizes:     COMRAM   BANK0   BANK1   BANK2   BANK3   BANK4   BANK5
  4315 ;;      Params:         0       0       0       0       0       0       0
  4316 ;;      Locals:         0       1       0       0       0       0       0
  4317 ;;      Temps:          0       1       0       0       0       0       0
  4318 ;;      Totals:         0       2       0       0       0       0       0
  4319 ;;Total ram usage:        2 bytes
  4320 ;; Hardware stack levels used:    1
  4321 ;; This function calls:
  4322 ;;		Nothing
  4323 ;; This function is called by:
  4324 ;;		_deplace
  4325 ;; This function uses a non-reentrant model
  4326 ;;
  4327                           
  4328                           	psect	text22
  4329  0033C6                     __ptext22:
  4330                           	opt callstack 0
  4331  0033C6                     _getAnalog:
  4332                           	opt callstack 29
  4333                           
  4334                           ;incstack = 0
  4335                           ;getAnalog@canal stored from wreg
  4336  0033C6  0100               	movlb	0	; force () banked
  4337  0033C8  6FB5               	movwf	getAnalog@canal& (0+255),b
  4338  0033CA                     
  4339                           ;main.c: 587: ADCON0bits.CHS = canal;
  4340  0033CA  C0B5  F0B4         	movff	getAnalog@canal,??_getAnalog
  4341  0033CE  0100               	movlb	0	; force () banked
  4342  0033D0  47B4               	rlncf	??_getAnalog& (0+255),f,b
  4343  0033D2  47B4               	rlncf	??_getAnalog& (0+255),f,b
  4344  0033D4  50C2               	movf	194,w,c	;volatile
  4345  0033D6  19B4               	xorwf	??_getAnalog& (0+255),w,b
  4346  0033D8  0BC3               	andlw	-61
  4347  0033DA  19B4               	xorwf	??_getAnalog& (0+255),w,b
  4348  0033DC  6EC2               	movwf	194,c	;volatile
  4349  0033DE                     
  4350                           ;main.c: 589: ADCON0bits.GO_DONE = 1;
  4351  0033DE  82C2               	bsf	194,1,c	;volatile
  4352  0033E0                     l272:
  4353  0033E0  B2C2               	btfsc	194,1,c	;volatile
  4354  0033E2  EFF5  F019         	goto	u2631
  4355  0033E6  EFF7  F019         	goto	u2630
  4356  0033EA                     u2631:
  4357  0033EA  EFF0  F019         	goto	l272
  4358  0033EE                     u2630:
  4359  0033EE                     
  4360                           ;main.c: 592: return ADRESH;
  4361  0033EE  50C4               	movf	196,w,c	;volatile
  4362  0033F0  0012               	return		;funcret
  4363  0033F2                     __end_of_getAnalog:
  4364                           	opt callstack 0
  4365                           
  4366 ;; *************** function _demine *****************
  4367 ;; Defined at:
  4368 ;;		line 446 in file "main.c"
  4369 ;; Parameters:    Size  Location     Type
  4370 ;;  x               1    wreg     unsigned char 
  4371 ;;  y               1   42[BANK0 ] unsigned char 
  4372 ;; Auto vars:     Size  Location     Type
  4373 ;;  x               1   51[BANK0 ] unsigned char 
  4374 ;; Return value:  Size  Location     Type
  4375 ;;                  1    wreg      unsigned char 
  4376 ;; Registers used:
  4377 ;;		wreg, fsr1l, fsr1h, fsr2l, fsr2h, status,2, status,0, prodl, prodh, cstack
  4378 ;; Tracked objects:
  4379 ;;		On entry : 0/0
  4380 ;;		On exit  : 0/0
  4381 ;;		Unchanged: 0/0
  4382 ;; Data sizes:     COMRAM   BANK0   BANK1   BANK2   BANK3   BANK4   BANK5
  4383 ;;      Params:         0       1       0       0       0       0       0
  4384 ;;      Locals:         0       1       0       0       0       0       0
  4385 ;;      Temps:          0       8       0       0       0       0       0
  4386 ;;      Totals:         0      10       0       0       0       0       0
  4387 ;;Total ram usage:       10 bytes
  4388 ;; Hardware stack levels used:    1
  4389 ;; Hardware stack levels required when called:    7
  4390 ;; This function calls:
  4391 ;;		_enleveTuilesAutour
  4392 ;;		_lcd_ecritChar
  4393 ;; This function is called by:
  4394 ;;		_main
  4395 ;; This function uses a non-reentrant model
  4396 ;;
  4397                           
  4398                           	psect	text23
  4399  001F6A                     __ptext23:
  4400                           	opt callstack 0
  4401  001F6A                     _demine:
  4402                           	opt callstack 23
  4403                           
  4404                           ;incstack = 0
  4405                           ;demine@x stored from wreg
  4406  001F6A  0100               	movlb	0	; force () banked
  4407  001F6C  6FE7               	movwf	demine@x& (0+255),b
  4408  001F6E                     
  4409                           ;main.c: 448: if(m_tabVue[y-1][x-1]!=3)
  4410  001F6E  0100               	movlb	0	; force () banked
  4411  001F70  51DE               	movf	demine@y& (0+255),w,b
  4412  001F72  0D15               	mullw	21
  4413  001F74  0EEA               	movlw	234
  4414  001F76  0100               	movlb	0	; force () banked
  4415  001F78  6FDF               	movwf	??_demine& (0+255),b
  4416  001F7A  0EFF               	movlw	255
  4417  001F7C  6FE0               	movwf	(??_demine+1)& (0+255),b
  4418  001F7E  0E9C               	movlw	low _m_tabVue
  4419  001F80  6FE1               	movwf	(??_demine+2)& (0+255),b
  4420  001F82  0E01               	movlw	high _m_tabVue
  4421  001F84  6FE2               	movwf	(??_demine+3)& (0+255),b
  4422  001F86  51DF               	movf	??_demine& (0+255),w,b
  4423  001F88  27E1               	addwf	(??_demine+2)& (0+255),f,b
  4424  001F8A  51E0               	movf	(??_demine+1)& (0+255),w,b
  4425  001F8C  23E2               	addwfc	(??_demine+3)& (0+255),f,b
  4426  001F8E  50F3               	movf	243,w,c
  4427  001F90  27E1               	addwf	(??_demine+2)& (0+255),f,b
  4428  001F92  50F4               	movf	244,w,c
  4429  001F94  23E2               	addwfc	(??_demine+3)& (0+255),f,b
  4430  001F96  0100               	movlb	0	; force () banked
  4431  001F98  51E7               	movf	demine@x& (0+255),w,b
  4432  001F9A  0100               	movlb	0	; force () banked
  4433  001F9C  25E1               	addwf	(??_demine+2)& (0+255),w,b
  4434  001F9E  6ED9               	movwf	fsr2l,c
  4435  001FA0  0100               	movlb	0	; force () banked
  4436  001FA2  0E00               	movlw	0
  4437  001FA4  0100               	movlb	0	; force () banked
  4438  001FA6  21E2               	addwfc	(??_demine+3)& (0+255),w,b
  4439  001FA8  6EDA               	movwf	fsr2h,c
  4440  001FAA  0E03               	movlw	3
  4441  001FAC  18DE               	xorwf	postinc2,w,c
  4442  001FAE  B4D8               	btfsc	status,2,c
  4443  001FB0  EFDC  F00F         	goto	u3251
  4444  001FB4  EFDE  F00F         	goto	u3250
  4445  001FB8                     u3251:
  4446  001FB8  EFE4  F010         	goto	l3133
  4447  001FBC                     u3250:
  4448  001FBC                     
  4449                           ; BSR set to: 0
  4450                           ;main.c: 449: {;main.c: 450: if(m_tabMines[y-1][x-1]==2&&m_tabVue[y-1][x-1]!=3)
  4451  001FBC  0100               	movlb	0	; force () banked
  4452  001FBE  51DE               	movf	demine@y& (0+255),w,b
  4453  001FC0  0D15               	mullw	21
  4454  001FC2  0EEA               	movlw	234
  4455  001FC4  0100               	movlb	0	; force () banked
  4456  001FC6  6FDF               	movwf	??_demine& (0+255),b
  4457  001FC8  0EFF               	movlw	255
  4458  001FCA  6FE0               	movwf	(??_demine+1)& (0+255),b
  4459  001FCC  0E60               	movlw	low _m_tabMines
  4460  001FCE  6FE1               	movwf	(??_demine+2)& (0+255),b
  4461  001FD0  0E00               	movlw	high _m_tabMines
  4462  001FD2  6FE2               	movwf	(??_demine+3)& (0+255),b
  4463  001FD4  51DF               	movf	??_demine& (0+255),w,b
  4464  001FD6  27E1               	addwf	(??_demine+2)& (0+255),f,b
  4465  001FD8  51E0               	movf	(??_demine+1)& (0+255),w,b
  4466  001FDA  23E2               	addwfc	(??_demine+3)& (0+255),f,b
  4467  001FDC  50F3               	movf	243,w,c
  4468  001FDE  27E1               	addwf	(??_demine+2)& (0+255),f,b
  4469  001FE0  50F4               	movf	244,w,c
  4470  001FE2  23E2               	addwfc	(??_demine+3)& (0+255),f,b
  4471  001FE4  0100               	movlb	0	; force () banked
  4472  001FE6  51E7               	movf	demine@x& (0+255),w,b
  4473  001FE8  0100               	movlb	0	; force () banked
  4474  001FEA  25E1               	addwf	(??_demine+2)& (0+255),w,b
  4475  001FEC  6ED9               	movwf	fsr2l,c
  4476  001FEE  0100               	movlb	0	; force () banked
  4477  001FF0  0E00               	movlw	0
  4478  001FF2  0100               	movlb	0	; force () banked
  4479  001FF4  21E2               	addwfc	(??_demine+3)& (0+255),w,b
  4480  001FF6  6EDA               	movwf	fsr2h,c
  4481  001FF8  0E02               	movlw	2
  4482  001FFA  18DE               	xorwf	postinc2,w,c
  4483  001FFC  A4D8               	btfss	status,2,c
  4484  001FFE  EF03  F010         	goto	u3261
  4485  002002  EF05  F010         	goto	u3260
  4486  002006                     u3261:
  4487  002006  EF2F  F010         	goto	l3123
  4488  00200A                     u3260:
  4489  00200A                     
  4490                           ; BSR set to: 0
  4491  00200A  0100               	movlb	0	; force () banked
  4492  00200C  51DE               	movf	demine@y& (0+255),w,b
  4493  00200E  0D15               	mullw	21
  4494  002010  0EEA               	movlw	234
  4495  002012  0100               	movlb	0	; force () banked
  4496  002014  6FDF               	movwf	??_demine& (0+255),b
  4497  002016  0EFF               	movlw	255
  4498  002018  6FE0               	movwf	(??_demine+1)& (0+255),b
  4499  00201A  0E9C               	movlw	low _m_tabVue
  4500  00201C  6FE1               	movwf	(??_demine+2)& (0+255),b
  4501  00201E  0E01               	movlw	high _m_tabVue
  4502  002020  6FE2               	movwf	(??_demine+3)& (0+255),b
  4503  002022  51DF               	movf	??_demine& (0+255),w,b
  4504  002024  27E1               	addwf	(??_demine+2)& (0+255),f,b
  4505  002026  51E0               	movf	(??_demine+1)& (0+255),w,b
  4506  002028  23E2               	addwfc	(??_demine+3)& (0+255),f,b
  4507  00202A  50F3               	movf	243,w,c
  4508  00202C  27E1               	addwf	(??_demine+2)& (0+255),f,b
  4509  00202E  50F4               	movf	244,w,c
  4510  002030  23E2               	addwfc	(??_demine+3)& (0+255),f,b
  4511  002032  0100               	movlb	0	; force () banked
  4512  002034  51E7               	movf	demine@x& (0+255),w,b
  4513  002036  0100               	movlb	0	; force () banked
  4514  002038  25E1               	addwf	(??_demine+2)& (0+255),w,b
  4515  00203A  6ED9               	movwf	fsr2l,c
  4516  00203C  0100               	movlb	0	; force () banked
  4517  00203E  0E00               	movlw	0
  4518  002040  0100               	movlb	0	; force () banked
  4519  002042  21E2               	addwfc	(??_demine+3)& (0+255),w,b
  4520  002044  6EDA               	movwf	fsr2h,c
  4521  002046  0E03               	movlw	3
  4522  002048  18DE               	xorwf	postinc2,w,c
  4523  00204A  B4D8               	btfsc	status,2,c
  4524  00204C  EF2A  F010         	goto	u3271
  4525  002050  EF2C  F010         	goto	u3270
  4526  002054                     u3271:
  4527  002054  EF2F  F010         	goto	l3123
  4528  002058                     u3270:
  4529  002058                     
  4530                           ; BSR set to: 0
  4531                           ;main.c: 451: return 0;
  4532  002058  0E00               	movlw	0
  4533  00205A  EFE5  F010         	goto	l219
  4534  00205E                     l3123:
  4535                           
  4536                           ; BSR set to: 0
  4537                           ;main.c: 452: else if(m_tabMines[y-1][x-1]!=2 && m_tabMines[y-1][x-1]!=' ')
  4538  00205E  0100               	movlb	0	; force () banked
  4539  002060  51DE               	movf	demine@y& (0+255),w,b
  4540  002062  0D15               	mullw	21
  4541  002064  0EEA               	movlw	234
  4542  002066  0100               	movlb	0	; force () banked
  4543  002068  6FDF               	movwf	??_demine& (0+255),b
  4544  00206A  0EFF               	movlw	255
  4545  00206C  6FE0               	movwf	(??_demine+1)& (0+255),b
  4546  00206E  0E60               	movlw	low _m_tabMines
  4547  002070  6FE1               	movwf	(??_demine+2)& (0+255),b
  4548  002072  0E00               	movlw	high _m_tabMines
  4549  002074  6FE2               	movwf	(??_demine+3)& (0+255),b
  4550  002076  51DF               	movf	??_demine& (0+255),w,b
  4551  002078  27E1               	addwf	(??_demine+2)& (0+255),f,b
  4552  00207A  51E0               	movf	(??_demine+1)& (0+255),w,b
  4553  00207C  23E2               	addwfc	(??_demine+3)& (0+255),f,b
  4554  00207E  50F3               	movf	243,w,c
  4555  002080  27E1               	addwf	(??_demine+2)& (0+255),f,b
  4556  002082  50F4               	movf	244,w,c
  4557  002084  23E2               	addwfc	(??_demine+3)& (0+255),f,b
  4558  002086  0100               	movlb	0	; force () banked
  4559  002088  51E7               	movf	demine@x& (0+255),w,b
  4560  00208A  0100               	movlb	0	; force () banked
  4561  00208C  25E1               	addwf	(??_demine+2)& (0+255),w,b
  4562  00208E  6ED9               	movwf	fsr2l,c
  4563  002090  0100               	movlb	0	; force () banked
  4564  002092  0E00               	movlw	0
  4565  002094  0100               	movlb	0	; force () banked
  4566  002096  21E2               	addwfc	(??_demine+3)& (0+255),w,b
  4567  002098  6EDA               	movwf	fsr2h,c
  4568  00209A  0E02               	movlw	2
  4569  00209C  18DE               	xorwf	postinc2,w,c
  4570  00209E  B4D8               	btfsc	status,2,c
  4571  0020A0  EF54  F010         	goto	u3281
  4572  0020A4  EF56  F010         	goto	u3280
  4573  0020A8                     u3281:
  4574  0020A8  EFDE  F010         	goto	l3131
  4575  0020AC                     u3280:
  4576  0020AC                     
  4577                           ; BSR set to: 0
  4578  0020AC  0100               	movlb	0	; force () banked
  4579  0020AE  51DE               	movf	demine@y& (0+255),w,b
  4580  0020B0  0D15               	mullw	21
  4581  0020B2  0EEA               	movlw	234
  4582  0020B4  0100               	movlb	0	; force () banked
  4583  0020B6  6FDF               	movwf	??_demine& (0+255),b
  4584  0020B8  0EFF               	movlw	255
  4585  0020BA  6FE0               	movwf	(??_demine+1)& (0+255),b
  4586  0020BC  0E60               	movlw	low _m_tabMines
  4587  0020BE  6FE1               	movwf	(??_demine+2)& (0+255),b
  4588  0020C0  0E00               	movlw	high _m_tabMines
  4589  0020C2  6FE2               	movwf	(??_demine+3)& (0+255),b
  4590  0020C4  51DF               	movf	??_demine& (0+255),w,b
  4591  0020C6  27E1               	addwf	(??_demine+2)& (0+255),f,b
  4592  0020C8  51E0               	movf	(??_demine+1)& (0+255),w,b
  4593  0020CA  23E2               	addwfc	(??_demine+3)& (0+255),f,b
  4594  0020CC  50F3               	movf	243,w,c
  4595  0020CE  27E1               	addwf	(??_demine+2)& (0+255),f,b
  4596  0020D0  50F4               	movf	244,w,c
  4597  0020D2  23E2               	addwfc	(??_demine+3)& (0+255),f,b
  4598  0020D4  0100               	movlb	0	; force () banked
  4599  0020D6  51E7               	movf	demine@x& (0+255),w,b
  4600  0020D8  0100               	movlb	0	; force () banked
  4601  0020DA  25E1               	addwf	(??_demine+2)& (0+255),w,b
  4602  0020DC  6ED9               	movwf	fsr2l,c
  4603  0020DE  0100               	movlb	0	; force () banked
  4604  0020E0  0E00               	movlw	0
  4605  0020E2  0100               	movlb	0	; force () banked
  4606  0020E4  21E2               	addwfc	(??_demine+3)& (0+255),w,b
  4607  0020E6  6EDA               	movwf	fsr2h,c
  4608  0020E8  0E20               	movlw	32
  4609  0020EA  18DE               	xorwf	postinc2,w,c
  4610  0020EC  B4D8               	btfsc	status,2,c
  4611  0020EE  EF7B  F010         	goto	u3291
  4612  0020F2  EF7D  F010         	goto	u3290
  4613  0020F6                     u3291:
  4614  0020F6  EFDE  F010         	goto	l3131
  4615  0020FA                     u3290:
  4616  0020FA                     
  4617                           ; BSR set to: 0
  4618                           ;main.c: 453: {;main.c: 454: m_tabVue[y-1][x-1] = m_tabMines[y-1][x-1];
  4619  0020FA  0100               	movlb	0	; force () banked
  4620  0020FC  51DE               	movf	demine@y& (0+255),w,b
  4621  0020FE  0D15               	mullw	21
  4622  002100  0EEA               	movlw	234
  4623  002102  0100               	movlb	0	; force () banked
  4624  002104  6FDF               	movwf	??_demine& (0+255),b
  4625  002106  0EFF               	movlw	255
  4626  002108  6FE0               	movwf	(??_demine+1)& (0+255),b
  4627  00210A  0E60               	movlw	low _m_tabMines
  4628  00210C  6FE1               	movwf	(??_demine+2)& (0+255),b
  4629  00210E  0E00               	movlw	high _m_tabMines
  4630  002110  6FE2               	movwf	(??_demine+3)& (0+255),b
  4631  002112  51DF               	movf	??_demine& (0+255),w,b
  4632  002114  27E1               	addwf	(??_demine+2)& (0+255),f,b
  4633  002116  51E0               	movf	(??_demine+1)& (0+255),w,b
  4634  002118  23E2               	addwfc	(??_demine+3)& (0+255),f,b
  4635  00211A  50F3               	movf	243,w,c
  4636  00211C  27E1               	addwf	(??_demine+2)& (0+255),f,b
  4637  00211E  50F4               	movf	244,w,c
  4638  002120  23E2               	addwfc	(??_demine+3)& (0+255),f,b
  4639  002122  0100               	movlb	0	; force () banked
  4640  002124  51E7               	movf	demine@x& (0+255),w,b
  4641  002126  0100               	movlb	0	; force () banked
  4642  002128  25E1               	addwf	(??_demine+2)& (0+255),w,b
  4643  00212A  6ED9               	movwf	fsr2l,c
  4644  00212C  0100               	movlb	0	; force () banked
  4645  00212E  0E00               	movlw	0
  4646  002130  0100               	movlb	0	; force () banked
  4647  002132  21E2               	addwfc	(??_demine+3)& (0+255),w,b
  4648  002134  6EDA               	movwf	fsr2h,c
  4649  002136  0100               	movlb	0	; force () banked
  4650  002138  51DE               	movf	demine@y& (0+255),w,b
  4651  00213A  0D15               	mullw	21
  4652  00213C  0EEA               	movlw	234
  4653  00213E  0100               	movlb	0	; force () banked
  4654  002140  6FE3               	movwf	(??_demine+4)& (0+255),b
  4655  002142  0EFF               	movlw	255
  4656  002144  6FE4               	movwf	(??_demine+5)& (0+255),b
  4657  002146  0E9C               	movlw	low _m_tabVue
  4658  002148  6FE5               	movwf	(??_demine+6)& (0+255),b
  4659  00214A  0E01               	movlw	high _m_tabVue
  4660  00214C  6FE6               	movwf	(??_demine+7)& (0+255),b
  4661  00214E  51E3               	movf	(??_demine+4)& (0+255),w,b
  4662  002150  27E5               	addwf	(??_demine+6)& (0+255),f,b
  4663  002152  51E4               	movf	(??_demine+5)& (0+255),w,b
  4664  002154  23E6               	addwfc	(??_demine+7)& (0+255),f,b
  4665  002156  50F3               	movf	243,w,c
  4666  002158  27E5               	addwf	(??_demine+6)& (0+255),f,b
  4667  00215A  50F4               	movf	244,w,c
  4668  00215C  23E6               	addwfc	(??_demine+7)& (0+255),f,b
  4669  00215E  0100               	movlb	0	; force () banked
  4670  002160  51E7               	movf	demine@x& (0+255),w,b
  4671  002162  0100               	movlb	0	; force () banked
  4672  002164  25E5               	addwf	(??_demine+6)& (0+255),w,b
  4673  002166  6EE1               	movwf	fsr1l,c
  4674  002168  0100               	movlb	0	; force () banked
  4675  00216A  0E00               	movlw	0
  4676  00216C  0100               	movlb	0	; force () banked
  4677  00216E  21E6               	addwfc	(??_demine+7)& (0+255),w,b
  4678  002170  6EE2               	movwf	fsr1h,c
  4679  002172  CFDF FFE7          	movff	indf2,indf1
  4680  002176                     
  4681                           ; BSR set to: 0
  4682                           ;main.c: 455: lcd_ecritChar(m_tabVue[y-1][x-1]);
  4683  002176  0100               	movlb	0	; force () banked
  4684  002178  51DE               	movf	demine@y& (0+255),w,b
  4685  00217A  0D15               	mullw	21
  4686  00217C  0EEA               	movlw	234
  4687  00217E  0100               	movlb	0	; force () banked
  4688  002180  6FDF               	movwf	??_demine& (0+255),b
  4689  002182  0EFF               	movlw	255
  4690  002184  6FE0               	movwf	(??_demine+1)& (0+255),b
  4691  002186  0E9C               	movlw	low _m_tabVue
  4692  002188  6FE1               	movwf	(??_demine+2)& (0+255),b
  4693  00218A  0E01               	movlw	high _m_tabVue
  4694  00218C  6FE2               	movwf	(??_demine+3)& (0+255),b
  4695  00218E  51DF               	movf	??_demine& (0+255),w,b
  4696  002190  27E1               	addwf	(??_demine+2)& (0+255),f,b
  4697  002192  51E0               	movf	(??_demine+1)& (0+255),w,b
  4698  002194  23E2               	addwfc	(??_demine+3)& (0+255),f,b
  4699  002196  50F3               	movf	243,w,c
  4700  002198  27E1               	addwf	(??_demine+2)& (0+255),f,b
  4701  00219A  50F4               	movf	244,w,c
  4702  00219C  23E2               	addwfc	(??_demine+3)& (0+255),f,b
  4703  00219E  0100               	movlb	0	; force () banked
  4704  0021A0  51E7               	movf	demine@x& (0+255),w,b
  4705  0021A2  0100               	movlb	0	; force () banked
  4706  0021A4  25E1               	addwf	(??_demine+2)& (0+255),w,b
  4707  0021A6  6ED9               	movwf	fsr2l,c
  4708  0021A8  0100               	movlb	0	; force () banked
  4709  0021AA  0E00               	movlw	0
  4710  0021AC  0100               	movlb	0	; force () banked
  4711  0021AE  21E2               	addwfc	(??_demine+3)& (0+255),w,b
  4712  0021B0  6EDA               	movwf	fsr2h,c
  4713  0021B2  50DF               	movf	indf2,w,c
  4714  0021B4  EC44  F019         	call	_lcd_ecritChar
  4715                           
  4716                           ;main.c: 456: }
  4717  0021B8  EFE4  F010         	goto	l3133
  4718  0021BC                     l3131:
  4719                           
  4720                           ; BSR set to: 0
  4721                           ;main.c: 457: else;main.c: 458: enleveTuilesAutour(x,y);
  4722  0021BC  C0DE  F0D0         	movff	demine@y,enleveTuilesAutour@y
  4723  0021C0  0100               	movlb	0	; force () banked
  4724  0021C2  51E7               	movf	demine@x& (0+255),w,b
  4725  0021C4  ECA4  F00A         	call	_enleveTuilesAutour
  4726  0021C8                     l3133:
  4727                           
  4728                           ;main.c: 459: };main.c: 460: return 1;
  4729  0021C8  0E01               	movlw	1
  4730  0021CA                     l219:
  4731  0021CA  0012               	return		;funcret
  4732  0021CC                     __end_of_demine:
  4733                           	opt callstack 0
  4734                           
  4735 ;; *************** function _enleveTuilesAutour *****************
  4736 ;; Defined at:
  4737 ;;		line 469 in file "main.c"
  4738 ;; Parameters:    Size  Location     Type
  4739 ;;  x               1    wreg     unsigned char 
  4740 ;;  y               1   28[BANK0 ] unsigned char 
  4741 ;; Auto vars:     Size  Location     Type
  4742 ;;  x               1   37[BANK0 ] unsigned char 
  4743 ;;  i               1   41[BANK0 ] char 
  4744 ;;  j               1   40[BANK0 ] char 
  4745 ;;  yTabLigne       1   39[BANK0 ] unsigned char 
  4746 ;;  xTabCol         1   38[BANK0 ] unsigned char 
  4747 ;; Return value:  Size  Location     Type
  4748 ;;                  1    wreg      void 
  4749 ;; Registers used:
  4750 ;;		wreg, fsr1l, fsr1h, fsr2l, fsr2h, status,2, status,0, prodl, prodh, cstack
  4751 ;; Tracked objects:
  4752 ;;		On entry : 0/0
  4753 ;;		On exit  : 0/0
  4754 ;;		Unchanged: 0/0
  4755 ;; Data sizes:     COMRAM   BANK0   BANK1   BANK2   BANK3   BANK4   BANK5
  4756 ;;      Params:         0       1       0       0       0       0       0
  4757 ;;      Locals:         0       5       0       0       0       0       0
  4758 ;;      Temps:          0       8       0       0       0       0       0
  4759 ;;      Totals:         0      14       0       0       0       0       0
  4760 ;;Total ram usage:       14 bytes
  4761 ;; Hardware stack levels used:    1
  4762 ;; Hardware stack levels required when called:    6
  4763 ;; This function calls:
  4764 ;;		___wmul
  4765 ;;		_lcd_ecritChar
  4766 ;;		_lcd_gotoXY
  4767 ;;		_openSpaces
  4768 ;; This function is called by:
  4769 ;;		_demine
  4770 ;; This function uses a non-reentrant model
  4771 ;;
  4772                           
  4773                           	psect	text24
  4774  001548                     __ptext24:
  4775                           	opt callstack 0
  4776  001548                     _enleveTuilesAutour:
  4777                           	opt callstack 23
  4778                           
  4779                           ;incstack = 0
  4780                           ;enleveTuilesAutour@x stored from wreg
  4781  001548  0100               	movlb	0	; force () banked
  4782  00154A  6FD9               	movwf	enleveTuilesAutour@x& (0+255),b
  4783  00154C                     
  4784                           ;main.c: 471: unsigned char xTabCol=x-1;
  4785  00154C  0100               	movlb	0	; force () banked
  4786  00154E  05D9               	decf	enleveTuilesAutour@x& (0+255),w,b
  4787  001550  0100               	movlb	0	; force () banked
  4788  001552  6FDA               	movwf	enleveTuilesAutour@xTabCol& (0+255),b
  4789                           
  4790                           ;main.c: 472: unsigned char yTabLigne=y-1;
  4791  001554  0100               	movlb	0	; force () banked
  4792  001556  05D0               	decf	enleveTuilesAutour@y& (0+255),w,b
  4793  001558  0100               	movlb	0	; force () banked
  4794  00155A  6FDB               	movwf	enleveTuilesAutour@yTabLigne& (0+255),b
  4795  00155C                     
  4796                           ; BSR set to: 0
  4797                           ;main.c: 475: for(signed char j=-1;j<=1;j++)
  4798  00155C  0100               	movlb	0	; force () banked
  4799  00155E  69DC               	setf	enleveTuilesAutour@j& (0+255),b
  4800  001560  51DC               	movf	enleveTuilesAutour@j& (0+255),w,b
  4801  001562  0A80               	xorlw	128
  4802  001564  0F7E               	addlw	-130
  4803  001566  A0D8               	btfss	status,0,c
  4804  001568  EFB8  F00A         	goto	u2641
  4805  00156C  EFBA  F00A         	goto	u2640
  4806  001570                     u2641:
  4807  001570  EFBC  F00A         	goto	l2737
  4808  001574                     u2640:
  4809  001574  EFBB  F00C         	goto	l235
  4810  001578                     l2737:
  4811                           
  4812                           ; BSR set to: 0
  4813                           ;main.c: 476: {;main.c: 477: if(yTabLigne==0&&j==-1)
  4814  001578  0100               	movlb	0	; force () banked
  4815  00157A  51DB               	movf	enleveTuilesAutour@yTabLigne& (0+255),w,b
  4816  00157C  A4D8               	btfss	status,2,c
  4817  00157E  EFC3  F00A         	goto	u2651
  4818  001582  EFC5  F00A         	goto	u2650
  4819  001586                     u2651:
  4820  001586  EFD1  F00A         	goto	l2743
  4821  00158A                     u2650:
  4822  00158A                     
  4823                           ; BSR set to: 0
  4824  00158A  0100               	movlb	0	; force () banked
  4825  00158C  29DC               	incf	enleveTuilesAutour@j& (0+255),w,b
  4826  00158E  A4D8               	btfss	status,2,c
  4827  001590  EFCC  F00A         	goto	u2661
  4828  001594  EFCE  F00A         	goto	u2660
  4829  001598                     u2661:
  4830  001598  EFD1  F00A         	goto	l2743
  4831  00159C                     u2660:
  4832  00159C                     
  4833                           ; BSR set to: 0
  4834                           ;main.c: 478: j=0;
  4835  00159C  0E00               	movlw	0
  4836  00159E  0100               	movlb	0	; force () banked
  4837  0015A0  6FDC               	movwf	enleveTuilesAutour@j& (0+255),b
  4838  0015A2                     l2743:
  4839                           
  4840                           ; BSR set to: 0
  4841                           ;main.c: 479: for(signed char i=-1;i<=1;i++)
  4842  0015A2  0100               	movlb	0	; force () banked
  4843  0015A4  69DD               	setf	enleveTuilesAutour@i& (0+255),b
  4844  0015A6                     
  4845                           ; BSR set to: 0
  4846  0015A6  0100               	movlb	0	; force () banked
  4847  0015A8  51DD               	movf	enleveTuilesAutour@i& (0+255),w,b
  4848  0015AA  0A80               	xorlw	128
  4849  0015AC  0F7E               	addlw	-130
  4850  0015AE  A0D8               	btfss	status,0,c
  4851  0015B0  EFDC  F00A         	goto	u2671
  4852  0015B4  EFDE  F00A         	goto	u2670
  4853  0015B8                     u2671:
  4854  0015B8  EFE0  F00A         	goto	l2749
  4855  0015BC                     u2670:
  4856  0015BC  EF98  F00C         	goto	l2779
  4857  0015C0                     l2749:
  4858                           
  4859                           ; BSR set to: 0
  4860                           ;main.c: 480: {;main.c: 481: if(xTabCol==0&&i==-1)
  4861  0015C0  0100               	movlb	0	; force () banked
  4862  0015C2  51DA               	movf	enleveTuilesAutour@xTabCol& (0+255),w,b
  4863  0015C4  A4D8               	btfss	status,2,c
  4864  0015C6  EFE7  F00A         	goto	u2681
  4865  0015CA  EFE9  F00A         	goto	u2680
  4866  0015CE                     u2681:
  4867  0015CE  EFF5  F00A         	goto	l2755
  4868  0015D2                     u2680:
  4869  0015D2                     
  4870                           ; BSR set to: 0
  4871  0015D2  0100               	movlb	0	; force () banked
  4872  0015D4  29DD               	incf	enleveTuilesAutour@i& (0+255),w,b
  4873  0015D6  A4D8               	btfss	status,2,c
  4874  0015D8  EFF0  F00A         	goto	u2691
  4875  0015DC  EFF2  F00A         	goto	u2690
  4876  0015E0                     u2691:
  4877  0015E0  EFF5  F00A         	goto	l2755
  4878  0015E4                     u2690:
  4879  0015E4                     
  4880                           ; BSR set to: 0
  4881                           ;main.c: 482: i=0;
  4882  0015E4  0E00               	movlw	0
  4883  0015E6  0100               	movlb	0	; force () banked
  4884  0015E8  6FDD               	movwf	enleveTuilesAutour@i& (0+255),b
  4885  0015EA                     l2755:
  4886                           
  4887                           ; BSR set to: 0
  4888                           ;main.c: 484: if(m_tabMines[yTabLigne+j][xTabCol+i]!=2&&m_tabVue[yTabLigne+j][xTabCol+i]
      +                          ==1)
  4889  0015EA  C0DD  F0D1         	movff	enleveTuilesAutour@i,??_enleveTuilesAutour
  4890  0015EE  0100               	movlb	0	; force () banked
  4891  0015F0  6BD2               	clrf	(??_enleveTuilesAutour+1)& (0+255),b
  4892  0015F2  BFD1               	btfsc	??_enleveTuilesAutour& (0+255),7,b
  4893  0015F4  07D2               	decf	(??_enleveTuilesAutour+1)& (0+255),f,b
  4894  0015F6  0100               	movlb	0	; force () banked
  4895  0015F8  51DC               	movf	enleveTuilesAutour@j& (0+255),w,b
  4896  0015FA  0100               	movlb	0	; force () banked
  4897  0015FC  6FB4               	movwf	___wmul@multiplier& (0+255),b
  4898  0015FE  6BB5               	clrf	(___wmul@multiplier+1)& (0+255),b
  4899  001600  BFB4               	btfsc	___wmul@multiplier& (0+255),7,b
  4900  001602  07B5               	decf	(___wmul@multiplier+1)& (0+255),f,b
  4901  001604  0E00               	movlw	0
  4902  001606  0100               	movlb	0	; force () banked
  4903  001608  6FB7               	movwf	(___wmul@multiplicand+1)& (0+255),b
  4904  00160A  0E15               	movlw	21
  4905  00160C  6FB6               	movwf	___wmul@multiplicand& (0+255),b
  4906  00160E  EC0D  F01A         	call	___wmul	;wreg free
  4907  001612  0100               	movlb	0	; force () banked
  4908  001614  51DB               	movf	enleveTuilesAutour@yTabLigne& (0+255),w,b
  4909  001616  0D15               	mullw	21
  4910  001618  0E60               	movlw	low _m_tabMines
  4911  00161A  0100               	movlb	0	; force () banked
  4912  00161C  6FD3               	movwf	(??_enleveTuilesAutour+2)& (0+255),b
  4913  00161E  0E00               	movlw	high _m_tabMines
  4914  001620  6FD4               	movwf	(??_enleveTuilesAutour+3)& (0+255),b
  4915  001622  50F3               	movf	243,w,c
  4916  001624  27D3               	addwf	(??_enleveTuilesAutour+2)& (0+255),f,b
  4917  001626  50F4               	movf	244,w,c
  4918  001628  23D4               	addwfc	(??_enleveTuilesAutour+3)& (0+255),f,b
  4919  00162A  0100               	movlb	0	; force () banked
  4920  00162C  51B4               	movf	?___wmul& (0+255),w,b
  4921  00162E  0100               	movlb	0	; force () banked
  4922  001630  27D3               	addwf	(??_enleveTuilesAutour+2)& (0+255),f,b
  4923  001632  0100               	movlb	0	; force () banked
  4924  001634  51B5               	movf	(?___wmul+1)& (0+255),w,b
  4925  001636  0100               	movlb	0	; force () banked
  4926  001638  23D4               	addwfc	(??_enleveTuilesAutour+3)& (0+255),f,b
  4927  00163A  0100               	movlb	0	; force () banked
  4928  00163C  51DA               	movf	enleveTuilesAutour@xTabCol& (0+255),w,b
  4929  00163E  0100               	movlb	0	; force () banked
  4930  001640  27D3               	addwf	(??_enleveTuilesAutour+2)& (0+255),f,b
  4931  001642  0E00               	movlw	0
  4932  001644  23D4               	addwfc	(??_enleveTuilesAutour+3)& (0+255),f,b
  4933  001646  51D1               	movf	??_enleveTuilesAutour& (0+255),w,b
  4934  001648  25D3               	addwf	(??_enleveTuilesAutour+2)& (0+255),w,b
  4935  00164A  6ED9               	movwf	fsr2l,c
  4936  00164C  51D2               	movf	(??_enleveTuilesAutour+1)& (0+255),w,b
  4937  00164E  21D4               	addwfc	(??_enleveTuilesAutour+3)& (0+255),w,b
  4938  001650  6EDA               	movwf	fsr2h,c
  4939  001652  0E02               	movlw	2
  4940  001654  18DE               	xorwf	postinc2,w,c
  4941  001656  B4D8               	btfsc	status,2,c
  4942  001658  EF30  F00B         	goto	u2701
  4943  00165C  EF32  F00B         	goto	u2700
  4944  001660                     u2701:
  4945  001660  EF75  F00C         	goto	l2769
  4946  001664                     u2700:
  4947  001664                     
  4948                           ; BSR set to: 0
  4949  001664  C0DD  F0D1         	movff	enleveTuilesAutour@i,??_enleveTuilesAutour
  4950  001668  0100               	movlb	0	; force () banked
  4951  00166A  6BD2               	clrf	(??_enleveTuilesAutour+1)& (0+255),b
  4952  00166C  BFD1               	btfsc	??_enleveTuilesAutour& (0+255),7,b
  4953  00166E  07D2               	decf	(??_enleveTuilesAutour+1)& (0+255),f,b
  4954  001670  0100               	movlb	0	; force () banked
  4955  001672  51DC               	movf	enleveTuilesAutour@j& (0+255),w,b
  4956  001674  0100               	movlb	0	; force () banked
  4957  001676  6FB4               	movwf	___wmul@multiplier& (0+255),b
  4958  001678  6BB5               	clrf	(___wmul@multiplier+1)& (0+255),b
  4959  00167A  BFB4               	btfsc	___wmul@multiplier& (0+255),7,b
  4960  00167C  07B5               	decf	(___wmul@multiplier+1)& (0+255),f,b
  4961  00167E  0E00               	movlw	0
  4962  001680  0100               	movlb	0	; force () banked
  4963  001682  6FB7               	movwf	(___wmul@multiplicand+1)& (0+255),b
  4964  001684  0E15               	movlw	21
  4965  001686  6FB6               	movwf	___wmul@multiplicand& (0+255),b
  4966  001688  EC0D  F01A         	call	___wmul	;wreg free
  4967  00168C  0100               	movlb	0	; force () banked
  4968  00168E  51DB               	movf	enleveTuilesAutour@yTabLigne& (0+255),w,b
  4969  001690  0D15               	mullw	21
  4970  001692  0E9C               	movlw	low _m_tabVue
  4971  001694  0100               	movlb	0	; force () banked
  4972  001696  6FD3               	movwf	(??_enleveTuilesAutour+2)& (0+255),b
  4973  001698  0E01               	movlw	high _m_tabVue
  4974  00169A  6FD4               	movwf	(??_enleveTuilesAutour+3)& (0+255),b
  4975  00169C  50F3               	movf	243,w,c
  4976  00169E  27D3               	addwf	(??_enleveTuilesAutour+2)& (0+255),f,b
  4977  0016A0  50F4               	movf	244,w,c
  4978  0016A2  23D4               	addwfc	(??_enleveTuilesAutour+3)& (0+255),f,b
  4979  0016A4  0100               	movlb	0	; force () banked
  4980  0016A6  51B4               	movf	?___wmul& (0+255),w,b
  4981  0016A8  0100               	movlb	0	; force () banked
  4982  0016AA  27D3               	addwf	(??_enleveTuilesAutour+2)& (0+255),f,b
  4983  0016AC  0100               	movlb	0	; force () banked
  4984  0016AE  51B5               	movf	(?___wmul+1)& (0+255),w,b
  4985  0016B0  0100               	movlb	0	; force () banked
  4986  0016B2  23D4               	addwfc	(??_enleveTuilesAutour+3)& (0+255),f,b
  4987  0016B4  0100               	movlb	0	; force () banked
  4988  0016B6  51DA               	movf	enleveTuilesAutour@xTabCol& (0+255),w,b
  4989  0016B8  0100               	movlb	0	; force () banked
  4990  0016BA  27D3               	addwf	(??_enleveTuilesAutour+2)& (0+255),f,b
  4991  0016BC  0E00               	movlw	0
  4992  0016BE  23D4               	addwfc	(??_enleveTuilesAutour+3)& (0+255),f,b
  4993  0016C0  51D1               	movf	??_enleveTuilesAutour& (0+255),w,b
  4994  0016C2  25D3               	addwf	(??_enleveTuilesAutour+2)& (0+255),w,b
  4995  0016C4  6ED9               	movwf	fsr2l,c
  4996  0016C6  51D2               	movf	(??_enleveTuilesAutour+1)& (0+255),w,b
  4997  0016C8  21D4               	addwfc	(??_enleveTuilesAutour+3)& (0+255),w,b
  4998  0016CA  6EDA               	movwf	fsr2h,c
  4999  0016CC  04DE               	decf	postinc2,w,c
  5000  0016CE  A4D8               	btfss	status,2,c
  5001  0016D0  EF6C  F00B         	goto	u2711
  5002  0016D4  EF6E  F00B         	goto	u2710
  5003  0016D8                     u2711:
  5004  0016D8  EF75  F00C         	goto	l2769
  5005  0016DC                     u2710:
  5006  0016DC                     
  5007                           ; BSR set to: 0
  5008                           ;main.c: 485: {;main.c: 486: lcd_gotoXY(x+i,y+j);
  5009  0016DC  0100               	movlb	0	; force () banked
  5010  0016DE  51DC               	movf	enleveTuilesAutour@j& (0+255),w,b
  5011  0016E0  0100               	movlb	0	; force () banked
  5012  0016E2  25D0               	addwf	enleveTuilesAutour@y& (0+255),w,b
  5013  0016E4  0100               	movlb	0	; force () banked
  5014  0016E6  6FB7               	movwf	lcd_gotoXY@y& (0+255),b
  5015  0016E8  0100               	movlb	0	; force () banked
  5016  0016EA  51DD               	movf	enleveTuilesAutour@i& (0+255),w,b
  5017  0016EC  0100               	movlb	0	; force () banked
  5018  0016EE  25D9               	addwf	enleveTuilesAutour@x& (0+255),w,b
  5019  0016F0  EC6D  F017         	call	_lcd_gotoXY
  5020  0016F4                     
  5021                           ;main.c: 487: m_tabVue[yTabLigne+j][xTabCol+i]=m_tabMines[yTabLigne+j][xTabCol+i];
  5022  0016F4  C0DD  F0D1         	movff	enleveTuilesAutour@i,??_enleveTuilesAutour
  5023  0016F8  0100               	movlb	0	; force () banked
  5024  0016FA  6BD2               	clrf	(??_enleveTuilesAutour+1)& (0+255),b
  5025  0016FC  BFD1               	btfsc	??_enleveTuilesAutour& (0+255),7,b
  5026  0016FE  07D2               	decf	(??_enleveTuilesAutour+1)& (0+255),f,b
  5027  001700  0100               	movlb	0	; force () banked
  5028  001702  51DC               	movf	enleveTuilesAutour@j& (0+255),w,b
  5029  001704  0100               	movlb	0	; force () banked
  5030  001706  6FB4               	movwf	___wmul@multiplier& (0+255),b
  5031  001708  6BB5               	clrf	(___wmul@multiplier+1)& (0+255),b
  5032  00170A  BFB4               	btfsc	___wmul@multiplier& (0+255),7,b
  5033  00170C  07B5               	decf	(___wmul@multiplier+1)& (0+255),f,b
  5034  00170E  0E00               	movlw	0
  5035  001710  0100               	movlb	0	; force () banked
  5036  001712  6FB7               	movwf	(___wmul@multiplicand+1)& (0+255),b
  5037  001714  0E15               	movlw	21
  5038  001716  6FB6               	movwf	___wmul@multiplicand& (0+255),b
  5039  001718  EC0D  F01A         	call	___wmul	;wreg free
  5040  00171C  0100               	movlb	0	; force () banked
  5041  00171E  51DB               	movf	enleveTuilesAutour@yTabLigne& (0+255),w,b
  5042  001720  0D15               	mullw	21
  5043  001722  0E60               	movlw	low _m_tabMines
  5044  001724  0100               	movlb	0	; force () banked
  5045  001726  6FD3               	movwf	(??_enleveTuilesAutour+2)& (0+255),b
  5046  001728  0E00               	movlw	high _m_tabMines
  5047  00172A  6FD4               	movwf	(??_enleveTuilesAutour+3)& (0+255),b
  5048  00172C  50F3               	movf	243,w,c
  5049  00172E  27D3               	addwf	(??_enleveTuilesAutour+2)& (0+255),f,b
  5050  001730  50F4               	movf	244,w,c
  5051  001732  23D4               	addwfc	(??_enleveTuilesAutour+3)& (0+255),f,b
  5052  001734  0100               	movlb	0	; force () banked
  5053  001736  51B4               	movf	?___wmul& (0+255),w,b
  5054  001738  0100               	movlb	0	; force () banked
  5055  00173A  27D3               	addwf	(??_enleveTuilesAutour+2)& (0+255),f,b
  5056  00173C  0100               	movlb	0	; force () banked
  5057  00173E  51B5               	movf	(?___wmul+1)& (0+255),w,b
  5058  001740  0100               	movlb	0	; force () banked
  5059  001742  23D4               	addwfc	(??_enleveTuilesAutour+3)& (0+255),f,b
  5060  001744  0100               	movlb	0	; force () banked
  5061  001746  51DA               	movf	enleveTuilesAutour@xTabCol& (0+255),w,b
  5062  001748  0100               	movlb	0	; force () banked
  5063  00174A  27D3               	addwf	(??_enleveTuilesAutour+2)& (0+255),f,b
  5064  00174C  0E00               	movlw	0
  5065  00174E  23D4               	addwfc	(??_enleveTuilesAutour+3)& (0+255),f,b
  5066  001750  51D1               	movf	??_enleveTuilesAutour& (0+255),w,b
  5067  001752  25D3               	addwf	(??_enleveTuilesAutour+2)& (0+255),w,b
  5068  001754  6ED9               	movwf	fsr2l,c
  5069  001756  51D2               	movf	(??_enleveTuilesAutour+1)& (0+255),w,b
  5070  001758  21D4               	addwfc	(??_enleveTuilesAutour+3)& (0+255),w,b
  5071  00175A  6EDA               	movwf	fsr2h,c
  5072  00175C  C0DD  F0D5         	movff	enleveTuilesAutour@i,??_enleveTuilesAutour+4
  5073  001760  6BD6               	clrf	(??_enleveTuilesAutour+5)& (0+255),b
  5074  001762  BFD5               	btfsc	(??_enleveTuilesAutour+4)& (0+255),7,b
  5075  001764  07D6               	decf	(??_enleveTuilesAutour+5)& (0+255),f,b
  5076  001766  0100               	movlb	0	; force () banked
  5077  001768  51DC               	movf	enleveTuilesAutour@j& (0+255),w,b
  5078  00176A  0100               	movlb	0	; force () banked
  5079  00176C  6FB4               	movwf	___wmul@multiplier& (0+255),b
  5080  00176E  6BB5               	clrf	(___wmul@multiplier+1)& (0+255),b
  5081  001770  BFB4               	btfsc	___wmul@multiplier& (0+255),7,b
  5082  001772  07B5               	decf	(___wmul@multiplier+1)& (0+255),f,b
  5083  001774  0E00               	movlw	0
  5084  001776  0100               	movlb	0	; force () banked
  5085  001778  6FB7               	movwf	(___wmul@multiplicand+1)& (0+255),b
  5086  00177A  0E15               	movlw	21
  5087  00177C  6FB6               	movwf	___wmul@multiplicand& (0+255),b
  5088  00177E  EC0D  F01A         	call	___wmul	;wreg free
  5089  001782  0100               	movlb	0	; force () banked
  5090  001784  51DB               	movf	enleveTuilesAutour@yTabLigne& (0+255),w,b
  5091  001786  0D15               	mullw	21
  5092  001788  0E9C               	movlw	low _m_tabVue
  5093  00178A  0100               	movlb	0	; force () banked
  5094  00178C  6FD7               	movwf	(??_enleveTuilesAutour+6)& (0+255),b
  5095  00178E  0E01               	movlw	high _m_tabVue
  5096  001790  6FD8               	movwf	(??_enleveTuilesAutour+7)& (0+255),b
  5097  001792  50F3               	movf	243,w,c
  5098  001794  27D7               	addwf	(??_enleveTuilesAutour+6)& (0+255),f,b
  5099  001796  50F4               	movf	244,w,c
  5100  001798  23D8               	addwfc	(??_enleveTuilesAutour+7)& (0+255),f,b
  5101  00179A  0100               	movlb	0	; force () banked
  5102  00179C  51B4               	movf	?___wmul& (0+255),w,b
  5103  00179E  0100               	movlb	0	; force () banked
  5104  0017A0  27D7               	addwf	(??_enleveTuilesAutour+6)& (0+255),f,b
  5105  0017A2  0100               	movlb	0	; force () banked
  5106  0017A4  51B5               	movf	(?___wmul+1)& (0+255),w,b
  5107  0017A6  0100               	movlb	0	; force () banked
  5108  0017A8  23D8               	addwfc	(??_enleveTuilesAutour+7)& (0+255),f,b
  5109  0017AA  0100               	movlb	0	; force () banked
  5110  0017AC  51DA               	movf	enleveTuilesAutour@xTabCol& (0+255),w,b
  5111  0017AE  0100               	movlb	0	; force () banked
  5112  0017B0  27D7               	addwf	(??_enleveTuilesAutour+6)& (0+255),f,b
  5113  0017B2  0E00               	movlw	0
  5114  0017B4  23D8               	addwfc	(??_enleveTuilesAutour+7)& (0+255),f,b
  5115  0017B6  51D5               	movf	(??_enleveTuilesAutour+4)& (0+255),w,b
  5116  0017B8  25D7               	addwf	(??_enleveTuilesAutour+6)& (0+255),w,b
  5117  0017BA  6EE1               	movwf	fsr1l,c
  5118  0017BC  51D6               	movf	(??_enleveTuilesAutour+5)& (0+255),w,b
  5119  0017BE  21D8               	addwfc	(??_enleveTuilesAutour+7)& (0+255),w,b
  5120  0017C0  6EE2               	movwf	fsr1h,c
  5121  0017C2  CFDF FFE7          	movff	indf2,indf1
  5122  0017C6                     
  5123                           ; BSR set to: 0
  5124                           ;main.c: 488: if(m_tabMines[yTabLigne+j][xTabCol+i]==' ')
  5125  0017C6  C0DD  F0D1         	movff	enleveTuilesAutour@i,??_enleveTuilesAutour
  5126  0017CA  0100               	movlb	0	; force () banked
  5127  0017CC  6BD2               	clrf	(??_enleveTuilesAutour+1)& (0+255),b
  5128  0017CE  BFD1               	btfsc	??_enleveTuilesAutour& (0+255),7,b
  5129  0017D0  07D2               	decf	(??_enleveTuilesAutour+1)& (0+255),f,b
  5130  0017D2  0100               	movlb	0	; force () banked
  5131  0017D4  51DC               	movf	enleveTuilesAutour@j& (0+255),w,b
  5132  0017D6  0100               	movlb	0	; force () banked
  5133  0017D8  6FB4               	movwf	___wmul@multiplier& (0+255),b
  5134  0017DA  6BB5               	clrf	(___wmul@multiplier+1)& (0+255),b
  5135  0017DC  BFB4               	btfsc	___wmul@multiplier& (0+255),7,b
  5136  0017DE  07B5               	decf	(___wmul@multiplier+1)& (0+255),f,b
  5137  0017E0  0E00               	movlw	0
  5138  0017E2  0100               	movlb	0	; force () banked
  5139  0017E4  6FB7               	movwf	(___wmul@multiplicand+1)& (0+255),b
  5140  0017E6  0E15               	movlw	21
  5141  0017E8  6FB6               	movwf	___wmul@multiplicand& (0+255),b
  5142  0017EA  EC0D  F01A         	call	___wmul	;wreg free
  5143  0017EE  0100               	movlb	0	; force () banked
  5144  0017F0  51DB               	movf	enleveTuilesAutour@yTabLigne& (0+255),w,b
  5145  0017F2  0D15               	mullw	21
  5146  0017F4  0E60               	movlw	low _m_tabMines
  5147  0017F6  0100               	movlb	0	; force () banked
  5148  0017F8  6FD3               	movwf	(??_enleveTuilesAutour+2)& (0+255),b
  5149  0017FA  0E00               	movlw	high _m_tabMines
  5150  0017FC  6FD4               	movwf	(??_enleveTuilesAutour+3)& (0+255),b
  5151  0017FE  50F3               	movf	243,w,c
  5152  001800  27D3               	addwf	(??_enleveTuilesAutour+2)& (0+255),f,b
  5153  001802  50F4               	movf	244,w,c
  5154  001804  23D4               	addwfc	(??_enleveTuilesAutour+3)& (0+255),f,b
  5155  001806  0100               	movlb	0	; force () banked
  5156  001808  51B4               	movf	?___wmul& (0+255),w,b
  5157  00180A  0100               	movlb	0	; force () banked
  5158  00180C  27D3               	addwf	(??_enleveTuilesAutour+2)& (0+255),f,b
  5159  00180E  0100               	movlb	0	; force () banked
  5160  001810  51B5               	movf	(?___wmul+1)& (0+255),w,b
  5161  001812  0100               	movlb	0	; force () banked
  5162  001814  23D4               	addwfc	(??_enleveTuilesAutour+3)& (0+255),f,b
  5163  001816  0100               	movlb	0	; force () banked
  5164  001818  51DA               	movf	enleveTuilesAutour@xTabCol& (0+255),w,b
  5165  00181A  0100               	movlb	0	; force () banked
  5166  00181C  27D3               	addwf	(??_enleveTuilesAutour+2)& (0+255),f,b
  5167  00181E  0E00               	movlw	0
  5168  001820  23D4               	addwfc	(??_enleveTuilesAutour+3)& (0+255),f,b
  5169  001822  51D1               	movf	??_enleveTuilesAutour& (0+255),w,b
  5170  001824  25D3               	addwf	(??_enleveTuilesAutour+2)& (0+255),w,b
  5171  001826  6ED9               	movwf	fsr2l,c
  5172  001828  51D2               	movf	(??_enleveTuilesAutour+1)& (0+255),w,b
  5173  00182A  21D4               	addwfc	(??_enleveTuilesAutour+3)& (0+255),w,b
  5174  00182C  6EDA               	movwf	fsr2h,c
  5175  00182E  0E20               	movlw	32
  5176  001830  18DE               	xorwf	postinc2,w,c
  5177  001832  A4D8               	btfss	status,2,c
  5178  001834  EF1E  F00C         	goto	u2721
  5179  001838  EF20  F00C         	goto	u2720
  5180  00183C                     u2721:
  5181  00183C  EF3E  F00C         	goto	l2767
  5182  001840                     u2720:
  5183  001840                     
  5184                           ; BSR set to: 0
  5185                           ;main.c: 489: openSpaces((yTabLigne+j),(xTabCol+i));
  5186  001840  0100               	movlb	0	; force () banked
  5187  001842  51DB               	movf	enleveTuilesAutour@yTabLigne& (0+255),w,b
  5188  001844  0100               	movlb	0	; force () banked
  5189  001846  25DC               	addwf	enleveTuilesAutour@j& (0+255),w,b
  5190  001848  0100               	movlb	0	; force () banked
  5191  00184A  6FC8               	movwf	openSpaces@ligne& (0+255),b
  5192  00184C  6AE8               	clrf	wreg,c
  5193  00184E  B0D8               	btfsc	status,0,c
  5194  001850  2AE8               	incf	wreg,f,c
  5195  001852  0100               	movlb	0	; force () banked
  5196  001854  BFDC               	btfsc	enleveTuilesAutour@j& (0+255),7,b
  5197  001856  06E8               	decf	wreg,f,c
  5198  001858  0100               	movlb	0	; force () banked
  5199  00185A  6FC9               	movwf	(openSpaces@ligne+1)& (0+255),b
  5200  00185C  0100               	movlb	0	; force () banked
  5201  00185E  51DA               	movf	enleveTuilesAutour@xTabCol& (0+255),w,b
  5202  001860  0100               	movlb	0	; force () banked
  5203  001862  25DD               	addwf	enleveTuilesAutour@i& (0+255),w,b
  5204  001864  0100               	movlb	0	; force () banked
  5205  001866  6FCA               	movwf	openSpaces@colonne& (0+255),b
  5206  001868  6AE8               	clrf	wreg,c
  5207  00186A  B0D8               	btfsc	status,0,c
  5208  00186C  2AE8               	incf	wreg,f,c
  5209  00186E  0100               	movlb	0	; force () banked
  5210  001870  BFDD               	btfsc	enleveTuilesAutour@i& (0+255),7,b
  5211  001872  06E8               	decf	wreg,f,c
  5212  001874  0100               	movlb	0	; force () banked
  5213  001876  6FCB               	movwf	(openSpaces@colonne+1)& (0+255),b
  5214  001878  EC06  F012         	call	_openSpaces	;wreg free
  5215  00187C                     l2767:
  5216                           
  5217                           ;main.c: 490: lcd_ecritChar(m_tabVue[yTabLigne+j][xTabCol+i]);
  5218  00187C  C0DD  F0D1         	movff	enleveTuilesAutour@i,??_enleveTuilesAutour
  5219  001880  0100               	movlb	0	; force () banked
  5220  001882  6BD2               	clrf	(??_enleveTuilesAutour+1)& (0+255),b
  5221  001884  BFD1               	btfsc	??_enleveTuilesAutour& (0+255),7,b
  5222  001886  07D2               	decf	(??_enleveTuilesAutour+1)& (0+255),f,b
  5223  001888  0100               	movlb	0	; force () banked
  5224  00188A  51DC               	movf	enleveTuilesAutour@j& (0+255),w,b
  5225  00188C  0100               	movlb	0	; force () banked
  5226  00188E  6FB4               	movwf	___wmul@multiplier& (0+255),b
  5227  001890  6BB5               	clrf	(___wmul@multiplier+1)& (0+255),b
  5228  001892  BFB4               	btfsc	___wmul@multiplier& (0+255),7,b
  5229  001894  07B5               	decf	(___wmul@multiplier+1)& (0+255),f,b
  5230  001896  0E00               	movlw	0
  5231  001898  0100               	movlb	0	; force () banked
  5232  00189A  6FB7               	movwf	(___wmul@multiplicand+1)& (0+255),b
  5233  00189C  0E15               	movlw	21
  5234  00189E  6FB6               	movwf	___wmul@multiplicand& (0+255),b
  5235  0018A0  EC0D  F01A         	call	___wmul	;wreg free
  5236  0018A4  0100               	movlb	0	; force () banked
  5237  0018A6  51DB               	movf	enleveTuilesAutour@yTabLigne& (0+255),w,b
  5238  0018A8  0D15               	mullw	21
  5239  0018AA  0E9C               	movlw	low _m_tabVue
  5240  0018AC  0100               	movlb	0	; force () banked
  5241  0018AE  6FD3               	movwf	(??_enleveTuilesAutour+2)& (0+255),b
  5242  0018B0  0E01               	movlw	high _m_tabVue
  5243  0018B2  6FD4               	movwf	(??_enleveTuilesAutour+3)& (0+255),b
  5244  0018B4  50F3               	movf	243,w,c
  5245  0018B6  27D3               	addwf	(??_enleveTuilesAutour+2)& (0+255),f,b
  5246  0018B8  50F4               	movf	244,w,c
  5247  0018BA  23D4               	addwfc	(??_enleveTuilesAutour+3)& (0+255),f,b
  5248  0018BC  0100               	movlb	0	; force () banked
  5249  0018BE  51B4               	movf	?___wmul& (0+255),w,b
  5250  0018C0  0100               	movlb	0	; force () banked
  5251  0018C2  27D3               	addwf	(??_enleveTuilesAutour+2)& (0+255),f,b
  5252  0018C4  0100               	movlb	0	; force () banked
  5253  0018C6  51B5               	movf	(?___wmul+1)& (0+255),w,b
  5254  0018C8  0100               	movlb	0	; force () banked
  5255  0018CA  23D4               	addwfc	(??_enleveTuilesAutour+3)& (0+255),f,b
  5256  0018CC  0100               	movlb	0	; force () banked
  5257  0018CE  51DA               	movf	enleveTuilesAutour@xTabCol& (0+255),w,b
  5258  0018D0  0100               	movlb	0	; force () banked
  5259  0018D2  27D3               	addwf	(??_enleveTuilesAutour+2)& (0+255),f,b
  5260  0018D4  0E00               	movlw	0
  5261  0018D6  23D4               	addwfc	(??_enleveTuilesAutour+3)& (0+255),f,b
  5262  0018D8  51D1               	movf	??_enleveTuilesAutour& (0+255),w,b
  5263  0018DA  25D3               	addwf	(??_enleveTuilesAutour+2)& (0+255),w,b
  5264  0018DC  6ED9               	movwf	fsr2l,c
  5265  0018DE  51D2               	movf	(??_enleveTuilesAutour+1)& (0+255),w,b
  5266  0018E0  21D4               	addwfc	(??_enleveTuilesAutour+3)& (0+255),w,b
  5267  0018E2  6EDA               	movwf	fsr2h,c
  5268  0018E4  50DF               	movf	indf2,w,c
  5269  0018E6  EC44  F019         	call	_lcd_ecritChar
  5270  0018EA                     l2769:
  5271                           
  5272                           ;main.c: 491: };main.c: 492: if(xTabCol==19&&i==0)
  5273  0018EA  0E13               	movlw	19
  5274  0018EC  0100               	movlb	0	; force () banked
  5275  0018EE  19DA               	xorwf	enleveTuilesAutour@xTabCol& (0+255),w,b
  5276  0018F0  A4D8               	btfss	status,2,c
  5277  0018F2  EF7D  F00C         	goto	u2731
  5278  0018F6  EF7F  F00C         	goto	u2730
  5279  0018FA                     u2731:
  5280  0018FA  EF8B  F00C         	goto	l2775
  5281  0018FE                     u2730:
  5282  0018FE                     
  5283                           ; BSR set to: 0
  5284  0018FE  0100               	movlb	0	; force () banked
  5285  001900  51DD               	movf	enleveTuilesAutour@i& (0+255),w,b
  5286  001902  A4D8               	btfss	status,2,c
  5287  001904  EF86  F00C         	goto	u2741
  5288  001908  EF88  F00C         	goto	u2740
  5289  00190C                     u2741:
  5290  00190C  EF8B  F00C         	goto	l2775
  5291  001910                     u2740:
  5292  001910                     
  5293                           ; BSR set to: 0
  5294                           ;main.c: 493: i=1;
  5295  001910  0E01               	movlw	1
  5296  001912  0100               	movlb	0	; force () banked
  5297  001914  6FDD               	movwf	enleveTuilesAutour@i& (0+255),b
  5298  001916                     l2775:
  5299                           
  5300                           ; BSR set to: 0
  5301  001916  0100               	movlb	0	; force () banked
  5302  001918  2BDD               	incf	enleveTuilesAutour@i& (0+255),f,b
  5303  00191A                     
  5304                           ; BSR set to: 0
  5305  00191A  0100               	movlb	0	; force () banked
  5306  00191C  51DD               	movf	enleveTuilesAutour@i& (0+255),w,b
  5307  00191E  0A80               	xorlw	128
  5308  001920  0F7E               	addlw	-130
  5309  001922  A0D8               	btfss	status,0,c
  5310  001924  EF96  F00C         	goto	u2751
  5311  001928  EF98  F00C         	goto	u2750
  5312  00192C                     u2751:
  5313  00192C  EFE0  F00A         	goto	l2749
  5314  001930                     u2750:
  5315  001930                     l2779:
  5316                           
  5317                           ; BSR set to: 0
  5318                           ;main.c: 495: };main.c: 496: if(yTabLigne==3&&j==0)
  5319  001930  0E03               	movlw	3
  5320  001932  0100               	movlb	0	; force () banked
  5321  001934  19DB               	xorwf	enleveTuilesAutour@yTabLigne& (0+255),w,b
  5322  001936  A4D8               	btfss	status,2,c
  5323  001938  EFA0  F00C         	goto	u2761
  5324  00193C  EFA2  F00C         	goto	u2760
  5325  001940                     u2761:
  5326  001940  EFAE  F00C         	goto	l2785
  5327  001944                     u2760:
  5328  001944                     
  5329                           ; BSR set to: 0
  5330  001944  0100               	movlb	0	; force () banked
  5331  001946  51DC               	movf	enleveTuilesAutour@j& (0+255),w,b
  5332  001948  A4D8               	btfss	status,2,c
  5333  00194A  EFA9  F00C         	goto	u2771
  5334  00194E  EFAB  F00C         	goto	u2770
  5335  001952                     u2771:
  5336  001952  EFAE  F00C         	goto	l2785
  5337  001956                     u2770:
  5338  001956                     
  5339                           ; BSR set to: 0
  5340                           ;main.c: 497: j=1;
  5341  001956  0E01               	movlw	1
  5342  001958  0100               	movlb	0	; force () banked
  5343  00195A  6FDC               	movwf	enleveTuilesAutour@j& (0+255),b
  5344  00195C                     l2785:
  5345                           
  5346                           ; BSR set to: 0
  5347  00195C  0100               	movlb	0	; force () banked
  5348  00195E  2BDC               	incf	enleveTuilesAutour@j& (0+255),f,b
  5349  001960                     
  5350                           ; BSR set to: 0
  5351  001960  0100               	movlb	0	; force () banked
  5352  001962  51DC               	movf	enleveTuilesAutour@j& (0+255),w,b
  5353  001964  0A80               	xorlw	128
  5354  001966  0F7E               	addlw	-130
  5355  001968  A0D8               	btfss	status,0,c
  5356  00196A  EFB9  F00C         	goto	u2781
  5357  00196E  EFBB  F00C         	goto	u2780
  5358  001972                     u2781:
  5359  001972  EFBC  F00A         	goto	l2737
  5360  001976                     u2780:
  5361  001976                     l235:
  5362                           
  5363                           ; BSR set to: 0
  5364  001976  0012               	return		;funcret
  5365  001978                     __end_of_enleveTuilesAutour:
  5366                           	opt callstack 0
  5367                           
  5368 ;; *************** function _openSpaces *****************
  5369 ;; Defined at:
  5370 ;;		line 377 in file "main.c"
  5371 ;; Parameters:    Size  Location     Type
  5372 ;;  ligne           2   20[BANK0 ] int 
  5373 ;;  colonne         2   22[BANK0 ] int 
  5374 ;; Auto vars:     Size  Location     Type
  5375 ;;  caseVide      152    0[BANK1 ] int [76]
  5376 ;;  i               2  152[BANK1 ] int 
  5377 ;;  yCoord          1  155[BANK1 ] unsigned char 
  5378 ;;  xCoord          1  154[BANK1 ] unsigned char 
  5379 ;; Return value:  Size  Location     Type
  5380 ;;                  1    wreg      void 
  5381 ;; Registers used:
  5382 ;;		wreg, fsr1l, fsr1h, fsr2l, fsr2h, status,2, status,0, prodl, prodh, cstack
  5383 ;; Tracked objects:
  5384 ;;		On entry : 0/0
  5385 ;;		On exit  : 0/0
  5386 ;;		Unchanged: 0/0
  5387 ;; Data sizes:     COMRAM   BANK0   BANK1   BANK2   BANK3   BANK4   BANK5
  5388 ;;      Params:         0       4       0       0       0       0       0
  5389 ;;      Locals:         0       0     156       0       0       0       0
  5390 ;;      Temps:          0       4       0       0       0       0       0
  5391 ;;      Totals:         0       8     156       0       0       0       0
  5392 ;;Total ram usage:      164 bytes
  5393 ;; Hardware stack levels used:    1
  5394 ;; Hardware stack levels required when called:    5
  5395 ;; This function calls:
  5396 ;;		___awdiv
  5397 ;;		___awmod
  5398 ;;		_enleveEspaceAutour
  5399 ;;		_lcd_ecritChar
  5400 ;;		_verifieToucheEspace
  5401 ;; This function is called by:
  5402 ;;		_enleveTuilesAutour
  5403 ;; This function uses a non-reentrant model
  5404 ;;
  5405                           
  5406                           	psect	text25
  5407  00240C                     __ptext25:
  5408                           	opt callstack 0
  5409  00240C                     _openSpaces:
  5410                           	opt callstack 23
  5411  00240C                     
  5412                           ;main.c: 379: int caseVide[76];;main.c: 380: int i=0;
  5413  00240C  0E00               	movlw	0
  5414  00240E  0101               	movlb	1	; force () banked
  5415  002410  6F99               	movwf	(openSpaces@i+1)& (0+255),b
  5416  002412  0E00               	movlw	0
  5417  002414  6F98               	movwf	openSpaces@i& (0+255),b
  5418  002416                     
  5419                           ; BSR set to: 1
  5420                           ;main.c: 381: unsigned char xCoord;;main.c: 382: unsigned char yCoord;;main.c: 384: veri
      +                          fieToucheEspace(caseVide, ligne, colonne, i);
  5421  002416  0E00               	movlw	low openSpaces@caseVide
  5422  002418  0100               	movlb	0	; force () banked
  5423  00241A  6FBA               	movwf	verifieToucheEspace@tabVerif& (0+255),b
  5424  00241C  0E01               	movlw	high openSpaces@caseVide
  5425  00241E  6FBB               	movwf	(verifieToucheEspace@tabVerif+1)& (0+255),b
  5426  002420  C0C8  F0BC         	movff	openSpaces@ligne,verifieToucheEspace@ligne
  5427  002424  C0C9  F0BD         	movff	openSpaces@ligne+1,verifieToucheEspace@ligne+1
  5428  002428  C0CA  F0BE         	movff	openSpaces@colonne,verifieToucheEspace@colonne
  5429  00242C  C0CB  F0BF         	movff	openSpaces@colonne+1,verifieToucheEspace@colonne+1
  5430  002430  C198  F0C0         	movff	openSpaces@i,verifieToucheEspace@iCount
  5431  002434  EC1E  F003         	call	_verifieToucheEspace	;wreg free
  5432                           
  5433                           ;main.c: 386: while(caseVide[i]!='\0')
  5434  002438  EFF1  F012         	goto	l2613
  5435  00243C                     l2597:
  5436                           
  5437                           ; BSR set to: 1
  5438                           ;main.c: 387: {;main.c: 389: xCoord=caseVide[i]/100;
  5439  00243C  90D8               	bcf	status,0,c
  5440  00243E  0101               	movlb	1	; force () banked
  5441  002440  3598               	rlcf	openSpaces@i& (0+255),w,b
  5442  002442  6ED9               	movwf	fsr2l,c
  5443  002444  3599               	rlcf	(openSpaces@i+1)& (0+255),w,b
  5444  002446  6EDA               	movwf	fsr2h,c
  5445  002448  0E00               	movlw	low openSpaces@caseVide
  5446  00244A  26D9               	addwf	fsr2l,f,c
  5447  00244C  0E01               	movlw	high openSpaces@caseVide
  5448  00244E  22DA               	addwfc	fsr2h,f,c
  5449  002450  CFDE F0B4          	movff	postinc2,___awdiv@dividend
  5450  002454  CFDD F0B5          	movff	postdec2,___awdiv@dividend+1
  5451  002458  0E00               	movlw	0
  5452  00245A  0100               	movlb	0	; force () banked
  5453  00245C  6FB7               	movwf	(___awdiv@divisor+1)& (0+255),b
  5454  00245E  0E64               	movlw	100
  5455  002460  6FB6               	movwf	___awdiv@divisor& (0+255),b
  5456  002462  EC17  F015         	call	___awdiv	;wreg free
  5457  002466  0100               	movlb	0	; force () banked
  5458  002468  51B4               	movf	?___awdiv& (0+255),w,b
  5459  00246A  0101               	movlb	1	; force () banked
  5460  00246C  6F9A               	movwf	openSpaces@xCoord& (0+255),b
  5461                           
  5462                           ;main.c: 390: yCoord=caseVide[i]%100;
  5463  00246E  90D8               	bcf	status,0,c
  5464  002470  0101               	movlb	1	; force () banked
  5465  002472  3598               	rlcf	openSpaces@i& (0+255),w,b
  5466  002474  6ED9               	movwf	fsr2l,c
  5467  002476  3599               	rlcf	(openSpaces@i+1)& (0+255),w,b
  5468  002478  6EDA               	movwf	fsr2h,c
  5469  00247A  0E00               	movlw	low openSpaces@caseVide
  5470  00247C  26D9               	addwf	fsr2l,f,c
  5471  00247E  0E01               	movlw	high openSpaces@caseVide
  5472  002480  22DA               	addwfc	fsr2h,f,c
  5473  002482  CFDE F0C2          	movff	postinc2,___awmod@dividend
  5474  002486  CFDD F0C3          	movff	postdec2,___awmod@dividend+1
  5475  00248A  0E00               	movlw	0
  5476  00248C  0100               	movlb	0	; force () banked
  5477  00248E  6FC5               	movwf	(___awmod@divisor+1)& (0+255),b
  5478  002490  0E64               	movlw	100
  5479  002492  6FC4               	movwf	___awmod@divisor& (0+255),b
  5480  002494  EC35  F016         	call	___awmod	;wreg free
  5481  002498  0100               	movlb	0	; force () banked
  5482  00249A  51C2               	movf	?___awmod& (0+255),w,b
  5483  00249C  0101               	movlb	1	; force () banked
  5484  00249E  6F9B               	movwf	openSpaces@yCoord& (0+255),b
  5485  0024A0                     
  5486                           ; BSR set to: 1
  5487                           ;main.c: 391: verifieToucheEspace(caseVide, xCoord, yCoord, i);
  5488  0024A0  0E00               	movlw	low openSpaces@caseVide
  5489  0024A2  0100               	movlb	0	; force () banked
  5490  0024A4  6FBA               	movwf	verifieToucheEspace@tabVerif& (0+255),b
  5491  0024A6  0E01               	movlw	high openSpaces@caseVide
  5492  0024A8  6FBB               	movwf	(verifieToucheEspace@tabVerif+1)& (0+255),b
  5493  0024AA  C19A  F0BC         	movff	openSpaces@xCoord,verifieToucheEspace@ligne
  5494  0024AE  0100               	movlb	0	; force () banked
  5495  0024B0  6BBD               	clrf	(verifieToucheEspace@ligne+1)& (0+255),b
  5496  0024B2  C19B  F0BE         	movff	openSpaces@yCoord,verifieToucheEspace@colonne
  5497  0024B6  0100               	movlb	0	; force () banked
  5498  0024B8  6BBF               	clrf	(verifieToucheEspace@colonne+1)& (0+255),b
  5499  0024BA  C198  F0C0         	movff	openSpaces@i,verifieToucheEspace@iCount
  5500  0024BE  EC1E  F003         	call	_verifieToucheEspace	;wreg free
  5501  0024C2                     
  5502                           ;main.c: 392: if(m_tabMines[xCoord][yCoord]!=2 && m_tabMines[xCoord][yCoord]!=' ')
  5503  0024C2  0101               	movlb	1	; force () banked
  5504  0024C4  519A               	movf	openSpaces@xCoord& (0+255),w,b
  5505  0024C6  0D15               	mullw	21
  5506  0024C8  0E60               	movlw	low _m_tabMines
  5507  0024CA  0100               	movlb	0	; force () banked
  5508  0024CC  6FCC               	movwf	??_openSpaces& (0+255),b
  5509  0024CE  0E00               	movlw	high _m_tabMines
  5510  0024D0  6FCD               	movwf	(??_openSpaces+1)& (0+255),b
  5511  0024D2  50F3               	movf	243,w,c
  5512  0024D4  27CC               	addwf	??_openSpaces& (0+255),f,b
  5513  0024D6  50F4               	movf	244,w,c
  5514  0024D8  23CD               	addwfc	(??_openSpaces+1)& (0+255),f,b
  5515  0024DA  0101               	movlb	1	; force () banked
  5516  0024DC  519B               	movf	openSpaces@yCoord& (0+255),w,b
  5517  0024DE  0100               	movlb	0	; force () banked
  5518  0024E0  25CC               	addwf	??_openSpaces& (0+255),w,b
  5519  0024E2  6ED9               	movwf	fsr2l,c
  5520  0024E4  0101               	movlb	1	; force () banked
  5521  0024E6  0E00               	movlw	0
  5522  0024E8  0100               	movlb	0	; force () banked
  5523  0024EA  21CD               	addwfc	(??_openSpaces+1)& (0+255),w,b
  5524  0024EC  6EDA               	movwf	fsr2h,c
  5525  0024EE  0E02               	movlw	2
  5526  0024F0  18DE               	xorwf	postinc2,w,c
  5527  0024F2  B4D8               	btfsc	status,2,c
  5528  0024F4  EF7E  F012         	goto	u2331
  5529  0024F8  EF80  F012         	goto	u2330
  5530  0024FC                     u2331:
  5531  0024FC  EFE8  F012         	goto	l2609
  5532  002500                     u2330:
  5533  002500                     
  5534                           ; BSR set to: 0
  5535  002500  0101               	movlb	1	; force () banked
  5536  002502  519A               	movf	openSpaces@xCoord& (0+255),w,b
  5537  002504  0D15               	mullw	21
  5538  002506  0E60               	movlw	low _m_tabMines
  5539  002508  0100               	movlb	0	; force () banked
  5540  00250A  6FCC               	movwf	??_openSpaces& (0+255),b
  5541  00250C  0E00               	movlw	high _m_tabMines
  5542  00250E  6FCD               	movwf	(??_openSpaces+1)& (0+255),b
  5543  002510  50F3               	movf	243,w,c
  5544  002512  27CC               	addwf	??_openSpaces& (0+255),f,b
  5545  002514  50F4               	movf	244,w,c
  5546  002516  23CD               	addwfc	(??_openSpaces+1)& (0+255),f,b
  5547  002518  0101               	movlb	1	; force () banked
  5548  00251A  519B               	movf	openSpaces@yCoord& (0+255),w,b
  5549  00251C  0100               	movlb	0	; force () banked
  5550  00251E  25CC               	addwf	??_openSpaces& (0+255),w,b
  5551  002520  6ED9               	movwf	fsr2l,c
  5552  002522  0101               	movlb	1	; force () banked
  5553  002524  0E00               	movlw	0
  5554  002526  0100               	movlb	0	; force () banked
  5555  002528  21CD               	addwfc	(??_openSpaces+1)& (0+255),w,b
  5556  00252A  6EDA               	movwf	fsr2h,c
  5557  00252C  0E20               	movlw	32
  5558  00252E  18DE               	xorwf	postinc2,w,c
  5559  002530  B4D8               	btfsc	status,2,c
  5560  002532  EF9D  F012         	goto	u2341
  5561  002536  EF9F  F012         	goto	u2340
  5562  00253A                     u2341:
  5563  00253A  EFE8  F012         	goto	l2609
  5564  00253E                     u2340:
  5565  00253E                     
  5566                           ; BSR set to: 0
  5567                           ;main.c: 393: {;main.c: 394: m_tabVue[xCoord][yCoord] = m_tabMines[xCoord][yCoord];
  5568  00253E  0101               	movlb	1	; force () banked
  5569  002540  519A               	movf	openSpaces@xCoord& (0+255),w,b
  5570  002542  0D15               	mullw	21
  5571  002544  0E60               	movlw	low _m_tabMines
  5572  002546  0100               	movlb	0	; force () banked
  5573  002548  6FCC               	movwf	??_openSpaces& (0+255),b
  5574  00254A  0E00               	movlw	high _m_tabMines
  5575  00254C  6FCD               	movwf	(??_openSpaces+1)& (0+255),b
  5576  00254E  50F3               	movf	243,w,c
  5577  002550  27CC               	addwf	??_openSpaces& (0+255),f,b
  5578  002552  50F4               	movf	244,w,c
  5579  002554  23CD               	addwfc	(??_openSpaces+1)& (0+255),f,b
  5580  002556  0101               	movlb	1	; force () banked
  5581  002558  519B               	movf	openSpaces@yCoord& (0+255),w,b
  5582  00255A  0100               	movlb	0	; force () banked
  5583  00255C  25CC               	addwf	??_openSpaces& (0+255),w,b
  5584  00255E  6ED9               	movwf	fsr2l,c
  5585  002560  0101               	movlb	1	; force () banked
  5586  002562  0E00               	movlw	0
  5587  002564  0100               	movlb	0	; force () banked
  5588  002566  21CD               	addwfc	(??_openSpaces+1)& (0+255),w,b
  5589  002568  6EDA               	movwf	fsr2h,c
  5590  00256A  0101               	movlb	1	; force () banked
  5591  00256C  519A               	movf	openSpaces@xCoord& (0+255),w,b
  5592  00256E  0D15               	mullw	21
  5593  002570  0E9C               	movlw	low _m_tabVue
  5594  002572  0100               	movlb	0	; force () banked
  5595  002574  6FCE               	movwf	(??_openSpaces+2)& (0+255),b
  5596  002576  0E01               	movlw	high _m_tabVue
  5597  002578  6FCF               	movwf	(??_openSpaces+3)& (0+255),b
  5598  00257A  50F3               	movf	243,w,c
  5599  00257C  27CE               	addwf	(??_openSpaces+2)& (0+255),f,b
  5600  00257E  50F4               	movf	244,w,c
  5601  002580  23CF               	addwfc	(??_openSpaces+3)& (0+255),f,b
  5602  002582  0101               	movlb	1	; force () banked
  5603  002584  519B               	movf	openSpaces@yCoord& (0+255),w,b
  5604  002586  0100               	movlb	0	; force () banked
  5605  002588  25CE               	addwf	(??_openSpaces+2)& (0+255),w,b
  5606  00258A  6EE1               	movwf	fsr1l,c
  5607  00258C  0101               	movlb	1	; force () banked
  5608  00258E  0E00               	movlw	0
  5609  002590  0100               	movlb	0	; force () banked
  5610  002592  21CF               	addwfc	(??_openSpaces+3)& (0+255),w,b
  5611  002594  6EE2               	movwf	fsr1h,c
  5612  002596  CFDF FFE7          	movff	indf2,indf1
  5613  00259A                     
  5614                           ; BSR set to: 0
  5615                           ;main.c: 395: lcd_ecritChar(m_tabVue[xCoord][yCoord]);
  5616  00259A  0101               	movlb	1	; force () banked
  5617  00259C  519A               	movf	openSpaces@xCoord& (0+255),w,b
  5618  00259E  0D15               	mullw	21
  5619  0025A0  0E9C               	movlw	low _m_tabVue
  5620  0025A2  0100               	movlb	0	; force () banked
  5621  0025A4  6FCC               	movwf	??_openSpaces& (0+255),b
  5622  0025A6  0E01               	movlw	high _m_tabVue
  5623  0025A8  6FCD               	movwf	(??_openSpaces+1)& (0+255),b
  5624  0025AA  50F3               	movf	243,w,c
  5625  0025AC  27CC               	addwf	??_openSpaces& (0+255),f,b
  5626  0025AE  50F4               	movf	244,w,c
  5627  0025B0  23CD               	addwfc	(??_openSpaces+1)& (0+255),f,b
  5628  0025B2  0101               	movlb	1	; force () banked
  5629  0025B4  519B               	movf	openSpaces@yCoord& (0+255),w,b
  5630  0025B6  0100               	movlb	0	; force () banked
  5631  0025B8  25CC               	addwf	??_openSpaces& (0+255),w,b
  5632  0025BA  6ED9               	movwf	fsr2l,c
  5633  0025BC  0101               	movlb	1	; force () banked
  5634  0025BE  0E00               	movlw	0
  5635  0025C0  0100               	movlb	0	; force () banked
  5636  0025C2  21CD               	addwfc	(??_openSpaces+1)& (0+255),w,b
  5637  0025C4  6EDA               	movwf	fsr2h,c
  5638  0025C6  50DF               	movf	indf2,w,c
  5639  0025C8  EC44  F019         	call	_lcd_ecritChar
  5640                           
  5641                           ;main.c: 396: }
  5642  0025CC  EFEE  F012         	goto	l2611
  5643  0025D0                     l2609:
  5644                           
  5645                           ; BSR set to: 0
  5646                           ;main.c: 397: else;main.c: 398: enleveEspaceAutour(xCoord,yCoord);
  5647  0025D0  C19B  F0BA         	movff	openSpaces@yCoord,enleveEspaceAutour@y
  5648  0025D4  0101               	movlb	1	; force () banked
  5649  0025D6  519A               	movf	openSpaces@xCoord& (0+255),w,b
  5650  0025D8  ECBC  F00C         	call	_enleveEspaceAutour
  5651  0025DC                     l2611:
  5652                           
  5653                           ;main.c: 399: i++;
  5654  0025DC  0101               	movlb	1	; force () banked
  5655  0025DE  4B98               	infsnz	openSpaces@i& (0+255),f,b
  5656  0025E0  2B99               	incf	(openSpaces@i+1)& (0+255),f,b
  5657  0025E2                     l2613:
  5658  0025E2  90D8               	bcf	status,0,c
  5659  0025E4  0101               	movlb	1	; force () banked
  5660  0025E6  3598               	rlcf	openSpaces@i& (0+255),w,b
  5661  0025E8  6ED9               	movwf	fsr2l,c
  5662  0025EA  3599               	rlcf	(openSpaces@i+1)& (0+255),w,b
  5663  0025EC  6EDA               	movwf	fsr2h,c
  5664  0025EE  0E00               	movlw	low openSpaces@caseVide
  5665  0025F0  26D9               	addwf	fsr2l,f,c
  5666  0025F2  0E01               	movlw	high openSpaces@caseVide
  5667  0025F4  22DA               	addwfc	fsr2h,f,c
  5668  0025F6  50DE               	movf	postinc2,w,c
  5669  0025F8  10DE               	iorwf	postinc2,w,c
  5670  0025FA  A4D8               	btfss	status,2,c
  5671  0025FC  EF02  F013         	goto	u2351
  5672  002600  EF04  F013         	goto	u2350
  5673  002604                     u2351:
  5674  002604  EF1E  F012         	goto	l2597
  5675  002608                     u2350:
  5676  002608                     
  5677                           ; BSR set to: 1
  5678  002608  0012               	return		;funcret
  5679  00260A                     __end_of_openSpaces:
  5680                           	opt callstack 0
  5681                           
  5682 ;; *************** function _verifieToucheEspace *****************
  5683 ;; Defined at:
  5684 ;;		line 308 in file "main.c"
  5685 ;; Parameters:    Size  Location     Type
  5686 ;;  tabVerif        2    6[BANK0 ] PTR int 
  5687 ;;		 -> openSpaces@caseVide(152), 
  5688 ;;  ligne           2    8[BANK0 ] int 
  5689 ;;  colonne         2   10[BANK0 ] int 
  5690 ;;  iCount          1   12[BANK0 ] unsigned char 
  5691 ;; Auto vars:     Size  Location     Type
  5692 ;;  i               1   18[BANK0 ] unsigned char 
  5693 ;; Return value:  Size  Location     Type
  5694 ;;                  1    wreg      void 
  5695 ;; Registers used:
  5696 ;;		wreg, fsr2l, fsr2h, status,2, status,0, prodl, prodh, cstack
  5697 ;; Tracked objects:
  5698 ;;		On entry : 0/0
  5699 ;;		On exit  : 0/0
  5700 ;;		Unchanged: 0/0
  5701 ;; Data sizes:     COMRAM   BANK0   BANK1   BANK2   BANK3   BANK4   BANK5
  5702 ;;      Params:         0       7       0       0       0       0       0
  5703 ;;      Locals:         0       1       0       0       0       0       0
  5704 ;;      Temps:          0       5       0       0       0       0       0
  5705 ;;      Totals:         0      13       0       0       0       0       0
  5706 ;;Total ram usage:       13 bytes
  5707 ;; Hardware stack levels used:    1
  5708 ;; Hardware stack levels required when called:    1
  5709 ;; This function calls:
  5710 ;;		___wmul
  5711 ;; This function is called by:
  5712 ;;		_openSpaces
  5713 ;; This function uses a non-reentrant model
  5714 ;;
  5715                           
  5716                           	psect	text26
  5717  00063C                     __ptext26:
  5718                           	opt callstack 0
  5719  00063C                     _verifieToucheEspace:
  5720                           	opt callstack 26
  5721  00063C                     
  5722                           ;main.c: 310: unsigned char i = iCount;
  5723  00063C  C0C0  F0C6         	movff	verifieToucheEspace@iCount,verifieToucheEspace@i
  5724  000640                     
  5725                           ;main.c: 312: if(ligne!=3)
  5726  000640  0E03               	movlw	3
  5727  000642  0100               	movlb	0	; force () banked
  5728  000644  19BC               	xorwf	verifieToucheEspace@ligne& (0+255),w,b
  5729  000646  11BD               	iorwf	(verifieToucheEspace@ligne+1)& (0+255),w,b
  5730  000648  B4D8               	btfsc	status,2,c
  5731  00064A  EF29  F003         	goto	u1761
  5732  00064E  EF2B  F003         	goto	u1760
  5733  000652                     u1761:
  5734  000652  EFB8  F003         	goto	l2365
  5735  000656                     u1760:
  5736  000656                     
  5737                           ; BSR set to: 0
  5738                           ;main.c: 313: {;main.c: 314: if(m_tabMines[ligne+1][colonne]==' '&&m_tabVue[ligne+1][col
      +                          onne]!=' ')
  5739  000656  C0BC  F0B4         	movff	verifieToucheEspace@ligne,___wmul@multiplier
  5740  00065A  C0BD  F0B5         	movff	verifieToucheEspace@ligne+1,___wmul@multiplier+1
  5741  00065E  0E00               	movlw	0
  5742  000660  0100               	movlb	0	; force () banked
  5743  000662  6FB7               	movwf	(___wmul@multiplicand+1)& (0+255),b
  5744  000664  0E15               	movlw	21
  5745  000666  6FB6               	movwf	___wmul@multiplicand& (0+255),b
  5746  000668  EC0D  F01A         	call	___wmul	;wreg free
  5747  00066C  0E60               	movlw	low _m_tabMines
  5748  00066E  0100               	movlb	0	; force () banked
  5749  000670  6FC1               	movwf	??_verifieToucheEspace& (0+255),b
  5750  000672  0E00               	movlw	high _m_tabMines
  5751  000674  6FC2               	movwf	(??_verifieToucheEspace+1)& (0+255),b
  5752  000676  0E15               	movlw	21
  5753  000678  27C1               	addwf	??_verifieToucheEspace& (0+255),f,b
  5754  00067A  0E00               	movlw	0
  5755  00067C  23C2               	addwfc	(??_verifieToucheEspace+1)& (0+255),f,b
  5756  00067E  0100               	movlb	0	; force () banked
  5757  000680  51B4               	movf	?___wmul& (0+255),w,b
  5758  000682  0100               	movlb	0	; force () banked
  5759  000684  27C1               	addwf	??_verifieToucheEspace& (0+255),f,b
  5760  000686  0100               	movlb	0	; force () banked
  5761  000688  51B5               	movf	(?___wmul+1)& (0+255),w,b
  5762  00068A  0100               	movlb	0	; force () banked
  5763  00068C  23C2               	addwfc	(??_verifieToucheEspace+1)& (0+255),f,b
  5764  00068E  0100               	movlb	0	; force () banked
  5765  000690  51BE               	movf	verifieToucheEspace@colonne& (0+255),w,b
  5766  000692  0100               	movlb	0	; force () banked
  5767  000694  25C1               	addwf	??_verifieToucheEspace& (0+255),w,b
  5768  000696  6ED9               	movwf	fsr2l,c
  5769  000698  0100               	movlb	0	; force () banked
  5770  00069A  51BF               	movf	(verifieToucheEspace@colonne+1)& (0+255),w,b
  5771  00069C  0100               	movlb	0	; force () banked
  5772  00069E  21C2               	addwfc	(??_verifieToucheEspace+1)& (0+255),w,b
  5773  0006A0  6EDA               	movwf	fsr2h,c
  5774  0006A2  0E20               	movlw	32
  5775  0006A4  18DE               	xorwf	postinc2,w,c
  5776  0006A6  A4D8               	btfss	status,2,c
  5777  0006A8  EF58  F003         	goto	u1771
  5778  0006AC  EF5A  F003         	goto	u1770
  5779  0006B0                     u1771:
  5780  0006B0  EFB8  F003         	goto	l2365
  5781  0006B4                     u1770:
  5782  0006B4                     
  5783                           ; BSR set to: 0
  5784  0006B4  C0BC  F0B4         	movff	verifieToucheEspace@ligne,___wmul@multiplier
  5785  0006B8  C0BD  F0B5         	movff	verifieToucheEspace@ligne+1,___wmul@multiplier+1
  5786  0006BC  0E00               	movlw	0
  5787  0006BE  0100               	movlb	0	; force () banked
  5788  0006C0  6FB7               	movwf	(___wmul@multiplicand+1)& (0+255),b
  5789  0006C2  0E15               	movlw	21
  5790  0006C4  6FB6               	movwf	___wmul@multiplicand& (0+255),b
  5791  0006C6  EC0D  F01A         	call	___wmul	;wreg free
  5792  0006CA  0E9C               	movlw	low _m_tabVue
  5793  0006CC  0100               	movlb	0	; force () banked
  5794  0006CE  6FC1               	movwf	??_verifieToucheEspace& (0+255),b
  5795  0006D0  0E01               	movlw	high _m_tabVue
  5796  0006D2  6FC2               	movwf	(??_verifieToucheEspace+1)& (0+255),b
  5797  0006D4  0E15               	movlw	21
  5798  0006D6  27C1               	addwf	??_verifieToucheEspace& (0+255),f,b
  5799  0006D8  0E00               	movlw	0
  5800  0006DA  23C2               	addwfc	(??_verifieToucheEspace+1)& (0+255),f,b
  5801  0006DC  0100               	movlb	0	; force () banked
  5802  0006DE  51B4               	movf	?___wmul& (0+255),w,b
  5803  0006E0  0100               	movlb	0	; force () banked
  5804  0006E2  27C1               	addwf	??_verifieToucheEspace& (0+255),f,b
  5805  0006E4  0100               	movlb	0	; force () banked
  5806  0006E6  51B5               	movf	(?___wmul+1)& (0+255),w,b
  5807  0006E8  0100               	movlb	0	; force () banked
  5808  0006EA  23C2               	addwfc	(??_verifieToucheEspace+1)& (0+255),f,b
  5809  0006EC  0100               	movlb	0	; force () banked
  5810  0006EE  51BE               	movf	verifieToucheEspace@colonne& (0+255),w,b
  5811  0006F0  0100               	movlb	0	; force () banked
  5812  0006F2  25C1               	addwf	??_verifieToucheEspace& (0+255),w,b
  5813  0006F4  6ED9               	movwf	fsr2l,c
  5814  0006F6  0100               	movlb	0	; force () banked
  5815  0006F8  51BF               	movf	(verifieToucheEspace@colonne+1)& (0+255),w,b
  5816  0006FA  0100               	movlb	0	; force () banked
  5817  0006FC  21C2               	addwfc	(??_verifieToucheEspace+1)& (0+255),w,b
  5818  0006FE  6EDA               	movwf	fsr2h,c
  5819  000700  0E20               	movlw	32
  5820  000702  18DE               	xorwf	postinc2,w,c
  5821  000704  B4D8               	btfsc	status,2,c
  5822  000706  EF87  F003         	goto	u1781
  5823  00070A  EF89  F003         	goto	u1780
  5824  00070E                     u1781:
  5825  00070E  EFB8  F003         	goto	l2365
  5826  000712                     u1780:
  5827  000712                     
  5828                           ; BSR set to: 0
  5829                           ;main.c: 315: {;main.c: 316: tabVerif[i]=(((ligne+1)*100)+colonne);
  5830  000712  C0BC  F0B4         	movff	verifieToucheEspace@ligne,___wmul@multiplier
  5831  000716  C0BD  F0B5         	movff	verifieToucheEspace@ligne+1,___wmul@multiplier+1
  5832  00071A  0E00               	movlw	0
  5833  00071C  0100               	movlb	0	; force () banked
  5834  00071E  6FB7               	movwf	(___wmul@multiplicand+1)& (0+255),b
  5835  000720  0E64               	movlw	100
  5836  000722  6FB6               	movwf	___wmul@multiplicand& (0+255),b
  5837  000724  EC0D  F01A         	call	___wmul	;wreg free
  5838  000728  0100               	movlb	0	; force () banked
  5839  00072A  51BE               	movf	verifieToucheEspace@colonne& (0+255),w,b
  5840  00072C  0100               	movlb	0	; force () banked
  5841  00072E  27B4               	addwf	?___wmul& (0+255),f,b
  5842  000730  0100               	movlb	0	; force () banked
  5843  000732  51BF               	movf	(verifieToucheEspace@colonne+1)& (0+255),w,b
  5844  000734  0100               	movlb	0	; force () banked
  5845  000736  23B5               	addwfc	(?___wmul+1)& (0+255),f,b
  5846  000738  0E64               	movlw	100
  5847  00073A  27B4               	addwf	?___wmul& (0+255),f,b
  5848  00073C  0E00               	movlw	0
  5849  00073E  23B5               	addwfc	(?___wmul+1)& (0+255),f,b
  5850  000740  0100               	movlb	0	; force () banked
  5851  000742  51C6               	movf	verifieToucheEspace@i& (0+255),w,b
  5852  000744  0D02               	mullw	2
  5853  000746  CFF3 F0C1          	movff	prodl,??_verifieToucheEspace
  5854  00074A  CFF4 F0C2          	movff	prodh,??_verifieToucheEspace+1
  5855  00074E  0100               	movlb	0	; force () banked
  5856  000750  51C1               	movf	??_verifieToucheEspace& (0+255),w,b
  5857  000752  0100               	movlb	0	; force () banked
  5858  000754  25BA               	addwf	verifieToucheEspace@tabVerif& (0+255),w,b
  5859  000756  6ED9               	movwf	fsr2l,c
  5860  000758  0100               	movlb	0	; force () banked
  5861  00075A  51C2               	movf	(??_verifieToucheEspace+1)& (0+255),w,b
  5862  00075C  0100               	movlb	0	; force () banked
  5863  00075E  21BB               	addwfc	(verifieToucheEspace@tabVerif+1)& (0+255),w,b
  5864  000760  6EDA               	movwf	fsr2h,c
  5865  000762  0100               	movlb	0	; force () banked
  5866  000764  C0B4  FFDE         	movff	?___wmul,postinc2
  5867  000768  C0B5  FFDD         	movff	?___wmul+1,postdec2
  5868  00076C                     
  5869                           ; BSR set to: 0
  5870                           ;main.c: 317: i++;
  5871  00076C  0100               	movlb	0	; force () banked
  5872  00076E  2BC6               	incf	verifieToucheEspace@i& (0+255),f,b
  5873  000770                     l2365:
  5874                           
  5875                           ; BSR set to: 0
  5876                           ;main.c: 318: };main.c: 319: };main.c: 320: if(ligne!=0)
  5877  000770  0100               	movlb	0	; force () banked
  5878  000772  51BC               	movf	verifieToucheEspace@ligne& (0+255),w,b
  5879  000774  11BD               	iorwf	(verifieToucheEspace@ligne+1)& (0+255),w,b
  5880  000776  B4D8               	btfsc	status,2,c
  5881  000778  EFC0  F003         	goto	u1791
  5882  00077C  EFC2  F003         	goto	u1790
  5883  000780                     u1791:
  5884  000780  EF60  F004         	goto	l2375
  5885  000784                     u1790:
  5886  000784                     
  5887                           ; BSR set to: 0
  5888                           ;main.c: 321: {;main.c: 322: if(m_tabMines[ligne-1][colonne]==' '&&m_tabVue[ligne-1][col
      +                          onne]!=' ')
  5889  000784  C0BC  F0B4         	movff	verifieToucheEspace@ligne,___wmul@multiplier
  5890  000788  C0BD  F0B5         	movff	verifieToucheEspace@ligne+1,___wmul@multiplier+1
  5891  00078C  0E00               	movlw	0
  5892  00078E  0100               	movlb	0	; force () banked
  5893  000790  6FB7               	movwf	(___wmul@multiplicand+1)& (0+255),b
  5894  000792  0E15               	movlw	21
  5895  000794  6FB6               	movwf	___wmul@multiplicand& (0+255),b
  5896  000796  EC0D  F01A         	call	___wmul	;wreg free
  5897  00079A  0EEB               	movlw	235
  5898  00079C  0100               	movlb	0	; force () banked
  5899  00079E  6FC1               	movwf	??_verifieToucheEspace& (0+255),b
  5900  0007A0  0EFF               	movlw	255
  5901  0007A2  6FC2               	movwf	(??_verifieToucheEspace+1)& (0+255),b
  5902  0007A4  0E60               	movlw	low _m_tabMines
  5903  0007A6  6FC3               	movwf	(??_verifieToucheEspace+2)& (0+255),b
  5904  0007A8  0E00               	movlw	high _m_tabMines
  5905  0007AA  6FC4               	movwf	(??_verifieToucheEspace+3)& (0+255),b
  5906  0007AC  51C1               	movf	??_verifieToucheEspace& (0+255),w,b
  5907  0007AE  27C3               	addwf	(??_verifieToucheEspace+2)& (0+255),f,b
  5908  0007B0  51C2               	movf	(??_verifieToucheEspace+1)& (0+255),w,b
  5909  0007B2  23C4               	addwfc	(??_verifieToucheEspace+3)& (0+255),f,b
  5910  0007B4  0100               	movlb	0	; force () banked
  5911  0007B6  51B4               	movf	?___wmul& (0+255),w,b
  5912  0007B8  0100               	movlb	0	; force () banked
  5913  0007BA  27C3               	addwf	(??_verifieToucheEspace+2)& (0+255),f,b
  5914  0007BC  0100               	movlb	0	; force () banked
  5915  0007BE  51B5               	movf	(?___wmul+1)& (0+255),w,b
  5916  0007C0  0100               	movlb	0	; force () banked
  5917  0007C2  23C4               	addwfc	(??_verifieToucheEspace+3)& (0+255),f,b
  5918  0007C4  0100               	movlb	0	; force () banked
  5919  0007C6  51BE               	movf	verifieToucheEspace@colonne& (0+255),w,b
  5920  0007C8  0100               	movlb	0	; force () banked
  5921  0007CA  25C3               	addwf	(??_verifieToucheEspace+2)& (0+255),w,b
  5922  0007CC  6ED9               	movwf	fsr2l,c
  5923  0007CE  0100               	movlb	0	; force () banked
  5924  0007D0  51BF               	movf	(verifieToucheEspace@colonne+1)& (0+255),w,b
  5925  0007D2  0100               	movlb	0	; force () banked
  5926  0007D4  21C4               	addwfc	(??_verifieToucheEspace+3)& (0+255),w,b
  5927  0007D6  6EDA               	movwf	fsr2h,c
  5928  0007D8  0E20               	movlw	32
  5929  0007DA  18DE               	xorwf	postinc2,w,c
  5930  0007DC  A4D8               	btfss	status,2,c
  5931  0007DE  EFF3  F003         	goto	u1801
  5932  0007E2  EFF5  F003         	goto	u1800
  5933  0007E6                     u1801:
  5934  0007E6  EF60  F004         	goto	l2375
  5935  0007EA                     u1800:
  5936  0007EA                     
  5937                           ; BSR set to: 0
  5938  0007EA  C0BC  F0B4         	movff	verifieToucheEspace@ligne,___wmul@multiplier
  5939  0007EE  C0BD  F0B5         	movff	verifieToucheEspace@ligne+1,___wmul@multiplier+1
  5940  0007F2  0E00               	movlw	0
  5941  0007F4  0100               	movlb	0	; force () banked
  5942  0007F6  6FB7               	movwf	(___wmul@multiplicand+1)& (0+255),b
  5943  0007F8  0E15               	movlw	21
  5944  0007FA  6FB6               	movwf	___wmul@multiplicand& (0+255),b
  5945  0007FC  EC0D  F01A         	call	___wmul	;wreg free
  5946  000800  0EEB               	movlw	235
  5947  000802  0100               	movlb	0	; force () banked
  5948  000804  6FC1               	movwf	??_verifieToucheEspace& (0+255),b
  5949  000806  0EFF               	movlw	255
  5950  000808  6FC2               	movwf	(??_verifieToucheEspace+1)& (0+255),b
  5951  00080A  0E9C               	movlw	low _m_tabVue
  5952  00080C  6FC3               	movwf	(??_verifieToucheEspace+2)& (0+255),b
  5953  00080E  0E01               	movlw	high _m_tabVue
  5954  000810  6FC4               	movwf	(??_verifieToucheEspace+3)& (0+255),b
  5955  000812  51C1               	movf	??_verifieToucheEspace& (0+255),w,b
  5956  000814  27C3               	addwf	(??_verifieToucheEspace+2)& (0+255),f,b
  5957  000816  51C2               	movf	(??_verifieToucheEspace+1)& (0+255),w,b
  5958  000818  23C4               	addwfc	(??_verifieToucheEspace+3)& (0+255),f,b
  5959  00081A  0100               	movlb	0	; force () banked
  5960  00081C  51B4               	movf	?___wmul& (0+255),w,b
  5961  00081E  0100               	movlb	0	; force () banked
  5962  000820  27C3               	addwf	(??_verifieToucheEspace+2)& (0+255),f,b
  5963  000822  0100               	movlb	0	; force () banked
  5964  000824  51B5               	movf	(?___wmul+1)& (0+255),w,b
  5965  000826  0100               	movlb	0	; force () banked
  5966  000828  23C4               	addwfc	(??_verifieToucheEspace+3)& (0+255),f,b
  5967  00082A  0100               	movlb	0	; force () banked
  5968  00082C  51BE               	movf	verifieToucheEspace@colonne& (0+255),w,b
  5969  00082E  0100               	movlb	0	; force () banked
  5970  000830  25C3               	addwf	(??_verifieToucheEspace+2)& (0+255),w,b
  5971  000832  6ED9               	movwf	fsr2l,c
  5972  000834  0100               	movlb	0	; force () banked
  5973  000836  51BF               	movf	(verifieToucheEspace@colonne+1)& (0+255),w,b
  5974  000838  0100               	movlb	0	; force () banked
  5975  00083A  21C4               	addwfc	(??_verifieToucheEspace+3)& (0+255),w,b
  5976  00083C  6EDA               	movwf	fsr2h,c
  5977  00083E  0E20               	movlw	32
  5978  000840  18DE               	xorwf	postinc2,w,c
  5979  000842  B4D8               	btfsc	status,2,c
  5980  000844  EF26  F004         	goto	u1811
  5981  000848  EF28  F004         	goto	u1810
  5982  00084C                     u1811:
  5983  00084C  EF60  F004         	goto	l2375
  5984  000850                     u1810:
  5985  000850                     
  5986                           ; BSR set to: 0
  5987                           ;main.c: 323: {;main.c: 324: tabVerif[i]=(((ligne-1)*100)+colonne);
  5988  000850  0E9C               	movlw	156
  5989  000852  0100               	movlb	0	; force () banked
  5990  000854  6FC1               	movwf	??_verifieToucheEspace& (0+255),b
  5991  000856  0EFF               	movlw	255
  5992  000858  6FC2               	movwf	(??_verifieToucheEspace+1)& (0+255),b
  5993  00085A  C0BC  F0B4         	movff	verifieToucheEspace@ligne,___wmul@multiplier
  5994  00085E  C0BD  F0B5         	movff	verifieToucheEspace@ligne+1,___wmul@multiplier+1
  5995  000862  0E00               	movlw	0
  5996  000864  0100               	movlb	0	; force () banked
  5997  000866  6FB7               	movwf	(___wmul@multiplicand+1)& (0+255),b
  5998  000868  0E64               	movlw	100
  5999  00086A  6FB6               	movwf	___wmul@multiplicand& (0+255),b
  6000  00086C  EC0D  F01A         	call	___wmul	;wreg free
  6001  000870  0100               	movlb	0	; force () banked
  6002  000872  51BE               	movf	verifieToucheEspace@colonne& (0+255),w,b
  6003  000874  0100               	movlb	0	; force () banked
  6004  000876  27B4               	addwf	?___wmul& (0+255),f,b
  6005  000878  0100               	movlb	0	; force () banked
  6006  00087A  51BF               	movf	(verifieToucheEspace@colonne+1)& (0+255),w,b
  6007  00087C  0100               	movlb	0	; force () banked
  6008  00087E  23B5               	addwfc	(?___wmul+1)& (0+255),f,b
  6009  000880  0100               	movlb	0	; force () banked
  6010  000882  51C1               	movf	??_verifieToucheEspace& (0+255),w,b
  6011  000884  0100               	movlb	0	; force () banked
  6012  000886  27B4               	addwf	?___wmul& (0+255),f,b
  6013  000888  0100               	movlb	0	; force () banked
  6014  00088A  51C2               	movf	(??_verifieToucheEspace+1)& (0+255),w,b
  6015  00088C  0100               	movlb	0	; force () banked
  6016  00088E  23B5               	addwfc	(?___wmul+1)& (0+255),f,b
  6017  000890  0100               	movlb	0	; force () banked
  6018  000892  51C6               	movf	verifieToucheEspace@i& (0+255),w,b
  6019  000894  0D02               	mullw	2
  6020  000896  CFF3 F0C3          	movff	prodl,??_verifieToucheEspace+2
  6021  00089A  CFF4 F0C4          	movff	prodh,??_verifieToucheEspace+3
  6022  00089E  0100               	movlb	0	; force () banked
  6023  0008A0  51C3               	movf	(??_verifieToucheEspace+2)& (0+255),w,b
  6024  0008A2  0100               	movlb	0	; force () banked
  6025  0008A4  25BA               	addwf	verifieToucheEspace@tabVerif& (0+255),w,b
  6026  0008A6  6ED9               	movwf	fsr2l,c
  6027  0008A8  0100               	movlb	0	; force () banked
  6028  0008AA  51C4               	movf	(??_verifieToucheEspace+3)& (0+255),w,b
  6029  0008AC  0100               	movlb	0	; force () banked
  6030  0008AE  21BB               	addwfc	(verifieToucheEspace@tabVerif+1)& (0+255),w,b
  6031  0008B0  6EDA               	movwf	fsr2h,c
  6032  0008B2  0100               	movlb	0	; force () banked
  6033  0008B4  C0B4  FFDE         	movff	?___wmul,postinc2
  6034  0008B8  C0B5  FFDD         	movff	?___wmul+1,postdec2
  6035  0008BC                     
  6036                           ; BSR set to: 0
  6037                           ;main.c: 325: i++;
  6038  0008BC  0100               	movlb	0	; force () banked
  6039  0008BE  2BC6               	incf	verifieToucheEspace@i& (0+255),f,b
  6040  0008C0                     l2375:
  6041                           
  6042                           ; BSR set to: 0
  6043                           ;main.c: 326: };main.c: 327: };main.c: 328: if(colonne!=19)
  6044  0008C0  0E13               	movlw	19
  6045  0008C2  0100               	movlb	0	; force () banked
  6046  0008C4  19BE               	xorwf	verifieToucheEspace@colonne& (0+255),w,b
  6047  0008C6  11BF               	iorwf	(verifieToucheEspace@colonne+1)& (0+255),w,b
  6048  0008C8  B4D8               	btfsc	status,2,c
  6049  0008CA  EF69  F004         	goto	u1821
  6050  0008CE  EF6B  F004         	goto	u1820
  6051  0008D2                     u1821:
  6052  0008D2  EFF8  F004         	goto	l2385
  6053  0008D6                     u1820:
  6054  0008D6                     
  6055                           ; BSR set to: 0
  6056                           ;main.c: 329: {;main.c: 330: if(m_tabMines[ligne][colonne+1]==' '&&m_tabVue[ligne][colon
      +                          ne+1]!=' ')
  6057  0008D6  C0BC  F0B4         	movff	verifieToucheEspace@ligne,___wmul@multiplier
  6058  0008DA  C0BD  F0B5         	movff	verifieToucheEspace@ligne+1,___wmul@multiplier+1
  6059  0008DE  0E00               	movlw	0
  6060  0008E0  0100               	movlb	0	; force () banked
  6061  0008E2  6FB7               	movwf	(___wmul@multiplicand+1)& (0+255),b
  6062  0008E4  0E15               	movlw	21
  6063  0008E6  6FB6               	movwf	___wmul@multiplicand& (0+255),b
  6064  0008E8  EC0D  F01A         	call	___wmul	;wreg free
  6065  0008EC  0E60               	movlw	low _m_tabMines
  6066  0008EE  0100               	movlb	0	; force () banked
  6067  0008F0  6FC1               	movwf	??_verifieToucheEspace& (0+255),b
  6068  0008F2  0E00               	movlw	high _m_tabMines
  6069  0008F4  6FC2               	movwf	(??_verifieToucheEspace+1)& (0+255),b
  6070  0008F6  0E01               	movlw	1
  6071  0008F8  27C1               	addwf	??_verifieToucheEspace& (0+255),f,b
  6072  0008FA  0E00               	movlw	0
  6073  0008FC  23C2               	addwfc	(??_verifieToucheEspace+1)& (0+255),f,b
  6074  0008FE  0100               	movlb	0	; force () banked
  6075  000900  51B4               	movf	?___wmul& (0+255),w,b
  6076  000902  0100               	movlb	0	; force () banked
  6077  000904  27C1               	addwf	??_verifieToucheEspace& (0+255),f,b
  6078  000906  0100               	movlb	0	; force () banked
  6079  000908  51B5               	movf	(?___wmul+1)& (0+255),w,b
  6080  00090A  0100               	movlb	0	; force () banked
  6081  00090C  23C2               	addwfc	(??_verifieToucheEspace+1)& (0+255),f,b
  6082  00090E  0100               	movlb	0	; force () banked
  6083  000910  51BE               	movf	verifieToucheEspace@colonne& (0+255),w,b
  6084  000912  0100               	movlb	0	; force () banked
  6085  000914  25C1               	addwf	??_verifieToucheEspace& (0+255),w,b
  6086  000916  6ED9               	movwf	fsr2l,c
  6087  000918  0100               	movlb	0	; force () banked
  6088  00091A  51BF               	movf	(verifieToucheEspace@colonne+1)& (0+255),w,b
  6089  00091C  0100               	movlb	0	; force () banked
  6090  00091E  21C2               	addwfc	(??_verifieToucheEspace+1)& (0+255),w,b
  6091  000920  6EDA               	movwf	fsr2h,c
  6092  000922  0E20               	movlw	32
  6093  000924  18DE               	xorwf	postinc2,w,c
  6094  000926  A4D8               	btfss	status,2,c
  6095  000928  EF98  F004         	goto	u1831
  6096  00092C  EF9A  F004         	goto	u1830
  6097  000930                     u1831:
  6098  000930  EFF8  F004         	goto	l2385
  6099  000934                     u1830:
  6100  000934                     
  6101                           ; BSR set to: 0
  6102  000934  C0BC  F0B4         	movff	verifieToucheEspace@ligne,___wmul@multiplier
  6103  000938  C0BD  F0B5         	movff	verifieToucheEspace@ligne+1,___wmul@multiplier+1
  6104  00093C  0E00               	movlw	0
  6105  00093E  0100               	movlb	0	; force () banked
  6106  000940  6FB7               	movwf	(___wmul@multiplicand+1)& (0+255),b
  6107  000942  0E15               	movlw	21
  6108  000944  6FB6               	movwf	___wmul@multiplicand& (0+255),b
  6109  000946  EC0D  F01A         	call	___wmul	;wreg free
  6110  00094A  0E9C               	movlw	low _m_tabVue
  6111  00094C  0100               	movlb	0	; force () banked
  6112  00094E  6FC1               	movwf	??_verifieToucheEspace& (0+255),b
  6113  000950  0E01               	movlw	high _m_tabVue
  6114  000952  6FC2               	movwf	(??_verifieToucheEspace+1)& (0+255),b
  6115  000954  0E01               	movlw	1
  6116  000956  27C1               	addwf	??_verifieToucheEspace& (0+255),f,b
  6117  000958  0E00               	movlw	0
  6118  00095A  23C2               	addwfc	(??_verifieToucheEspace+1)& (0+255),f,b
  6119  00095C  0100               	movlb	0	; force () banked
  6120  00095E  51B4               	movf	?___wmul& (0+255),w,b
  6121  000960  0100               	movlb	0	; force () banked
  6122  000962  27C1               	addwf	??_verifieToucheEspace& (0+255),f,b
  6123  000964  0100               	movlb	0	; force () banked
  6124  000966  51B5               	movf	(?___wmul+1)& (0+255),w,b
  6125  000968  0100               	movlb	0	; force () banked
  6126  00096A  23C2               	addwfc	(??_verifieToucheEspace+1)& (0+255),f,b
  6127  00096C  0100               	movlb	0	; force () banked
  6128  00096E  51BE               	movf	verifieToucheEspace@colonne& (0+255),w,b
  6129  000970  0100               	movlb	0	; force () banked
  6130  000972  25C1               	addwf	??_verifieToucheEspace& (0+255),w,b
  6131  000974  6ED9               	movwf	fsr2l,c
  6132  000976  0100               	movlb	0	; force () banked
  6133  000978  51BF               	movf	(verifieToucheEspace@colonne+1)& (0+255),w,b
  6134  00097A  0100               	movlb	0	; force () banked
  6135  00097C  21C2               	addwfc	(??_verifieToucheEspace+1)& (0+255),w,b
  6136  00097E  6EDA               	movwf	fsr2h,c
  6137  000980  0E20               	movlw	32
  6138  000982  18DE               	xorwf	postinc2,w,c
  6139  000984  B4D8               	btfsc	status,2,c
  6140  000986  EFC7  F004         	goto	u1841
  6141  00098A  EFC9  F004         	goto	u1840
  6142  00098E                     u1841:
  6143  00098E  EFF8  F004         	goto	l2385
  6144  000992                     u1840:
  6145  000992                     
  6146                           ; BSR set to: 0
  6147                           ;main.c: 331: {;main.c: 332: tabVerif[i]=((ligne*100)+(colonne+1));
  6148  000992  C0BC  F0B4         	movff	verifieToucheEspace@ligne,___wmul@multiplier
  6149  000996  C0BD  F0B5         	movff	verifieToucheEspace@ligne+1,___wmul@multiplier+1
  6150  00099A  0E00               	movlw	0
  6151  00099C  0100               	movlb	0	; force () banked
  6152  00099E  6FB7               	movwf	(___wmul@multiplicand+1)& (0+255),b
  6153  0009A0  0E64               	movlw	100
  6154  0009A2  6FB6               	movwf	___wmul@multiplicand& (0+255),b
  6155  0009A4  EC0D  F01A         	call	___wmul	;wreg free
  6156  0009A8  0100               	movlb	0	; force () banked
  6157  0009AA  51BE               	movf	verifieToucheEspace@colonne& (0+255),w,b
  6158  0009AC  0100               	movlb	0	; force () banked
  6159  0009AE  27B4               	addwf	?___wmul& (0+255),f,b
  6160  0009B0  0100               	movlb	0	; force () banked
  6161  0009B2  51BF               	movf	(verifieToucheEspace@colonne+1)& (0+255),w,b
  6162  0009B4  0100               	movlb	0	; force () banked
  6163  0009B6  23B5               	addwfc	(?___wmul+1)& (0+255),f,b
  6164  0009B8  0E01               	movlw	1
  6165  0009BA  27B4               	addwf	?___wmul& (0+255),f,b
  6166  0009BC  0E00               	movlw	0
  6167  0009BE  23B5               	addwfc	(?___wmul+1)& (0+255),f,b
  6168  0009C0  0100               	movlb	0	; force () banked
  6169  0009C2  51C6               	movf	verifieToucheEspace@i& (0+255),w,b
  6170  0009C4  0D02               	mullw	2
  6171  0009C6  CFF3 F0C1          	movff	prodl,??_verifieToucheEspace
  6172  0009CA  CFF4 F0C2          	movff	prodh,??_verifieToucheEspace+1
  6173  0009CE  0100               	movlb	0	; force () banked
  6174  0009D0  51C1               	movf	??_verifieToucheEspace& (0+255),w,b
  6175  0009D2  0100               	movlb	0	; force () banked
  6176  0009D4  25BA               	addwf	verifieToucheEspace@tabVerif& (0+255),w,b
  6177  0009D6  6ED9               	movwf	fsr2l,c
  6178  0009D8  0100               	movlb	0	; force () banked
  6179  0009DA  51C2               	movf	(??_verifieToucheEspace+1)& (0+255),w,b
  6180  0009DC  0100               	movlb	0	; force () banked
  6181  0009DE  21BB               	addwfc	(verifieToucheEspace@tabVerif+1)& (0+255),w,b
  6182  0009E0  6EDA               	movwf	fsr2h,c
  6183  0009E2  0100               	movlb	0	; force () banked
  6184  0009E4  C0B4  FFDE         	movff	?___wmul,postinc2
  6185  0009E8  C0B5  FFDD         	movff	?___wmul+1,postdec2
  6186  0009EC                     
  6187                           ; BSR set to: 0
  6188                           ;main.c: 333: i++;
  6189  0009EC  0100               	movlb	0	; force () banked
  6190  0009EE  2BC6               	incf	verifieToucheEspace@i& (0+255),f,b
  6191  0009F0                     l2385:
  6192                           
  6193                           ; BSR set to: 0
  6194                           ;main.c: 334: };main.c: 335: };main.c: 336: if(colonne!=0)
  6195  0009F0  0100               	movlb	0	; force () banked
  6196  0009F2  51BE               	movf	verifieToucheEspace@colonne& (0+255),w,b
  6197  0009F4  11BF               	iorwf	(verifieToucheEspace@colonne+1)& (0+255),w,b
  6198  0009F6  B4D8               	btfsc	status,2,c
  6199  0009F8  EF00  F005         	goto	u1851
  6200  0009FC  EF02  F005         	goto	u1850
  6201  000A00                     u1851:
  6202  000A00  EFA0  F005         	goto	l2395
  6203  000A04                     u1850:
  6204  000A04                     
  6205                           ; BSR set to: 0
  6206                           ;main.c: 337: {;main.c: 338: if(m_tabMines[ligne][colonne-1]==' '&&m_tabVue[ligne][colon
      +                          ne-1]!=' ')
  6207  000A04  C0BC  F0B4         	movff	verifieToucheEspace@ligne,___wmul@multiplier
  6208  000A08  C0BD  F0B5         	movff	verifieToucheEspace@ligne+1,___wmul@multiplier+1
  6209  000A0C  0E00               	movlw	0
  6210  000A0E  0100               	movlb	0	; force () banked
  6211  000A10  6FB7               	movwf	(___wmul@multiplicand+1)& (0+255),b
  6212  000A12  0E15               	movlw	21
  6213  000A14  6FB6               	movwf	___wmul@multiplicand& (0+255),b
  6214  000A16  EC0D  F01A         	call	___wmul	;wreg free
  6215  000A1A  0EFF               	movlw	255
  6216  000A1C  0100               	movlb	0	; force () banked
  6217  000A1E  6FC1               	movwf	??_verifieToucheEspace& (0+255),b
  6218  000A20  0EFF               	movlw	255
  6219  000A22  6FC2               	movwf	(??_verifieToucheEspace+1)& (0+255),b
  6220  000A24  0E60               	movlw	low _m_tabMines
  6221  000A26  6FC3               	movwf	(??_verifieToucheEspace+2)& (0+255),b
  6222  000A28  0E00               	movlw	high _m_tabMines
  6223  000A2A  6FC4               	movwf	(??_verifieToucheEspace+3)& (0+255),b
  6224  000A2C  51C1               	movf	??_verifieToucheEspace& (0+255),w,b
  6225  000A2E  27C3               	addwf	(??_verifieToucheEspace+2)& (0+255),f,b
  6226  000A30  51C2               	movf	(??_verifieToucheEspace+1)& (0+255),w,b
  6227  000A32  23C4               	addwfc	(??_verifieToucheEspace+3)& (0+255),f,b
  6228  000A34  0100               	movlb	0	; force () banked
  6229  000A36  51B4               	movf	?___wmul& (0+255),w,b
  6230  000A38  0100               	movlb	0	; force () banked
  6231  000A3A  27C3               	addwf	(??_verifieToucheEspace+2)& (0+255),f,b
  6232  000A3C  0100               	movlb	0	; force () banked
  6233  000A3E  51B5               	movf	(?___wmul+1)& (0+255),w,b
  6234  000A40  0100               	movlb	0	; force () banked
  6235  000A42  23C4               	addwfc	(??_verifieToucheEspace+3)& (0+255),f,b
  6236  000A44  0100               	movlb	0	; force () banked
  6237  000A46  51BE               	movf	verifieToucheEspace@colonne& (0+255),w,b
  6238  000A48  0100               	movlb	0	; force () banked
  6239  000A4A  25C3               	addwf	(??_verifieToucheEspace+2)& (0+255),w,b
  6240  000A4C  6ED9               	movwf	fsr2l,c
  6241  000A4E  0100               	movlb	0	; force () banked
  6242  000A50  51BF               	movf	(verifieToucheEspace@colonne+1)& (0+255),w,b
  6243  000A52  0100               	movlb	0	; force () banked
  6244  000A54  21C4               	addwfc	(??_verifieToucheEspace+3)& (0+255),w,b
  6245  000A56  6EDA               	movwf	fsr2h,c
  6246  000A58  0E20               	movlw	32
  6247  000A5A  18DE               	xorwf	postinc2,w,c
  6248  000A5C  A4D8               	btfss	status,2,c
  6249  000A5E  EF33  F005         	goto	u1861
  6250  000A62  EF35  F005         	goto	u1860
  6251  000A66                     u1861:
  6252  000A66  EFA0  F005         	goto	l2395
  6253  000A6A                     u1860:
  6254  000A6A                     
  6255                           ; BSR set to: 0
  6256  000A6A  C0BC  F0B4         	movff	verifieToucheEspace@ligne,___wmul@multiplier
  6257  000A6E  C0BD  F0B5         	movff	verifieToucheEspace@ligne+1,___wmul@multiplier+1
  6258  000A72  0E00               	movlw	0
  6259  000A74  0100               	movlb	0	; force () banked
  6260  000A76  6FB7               	movwf	(___wmul@multiplicand+1)& (0+255),b
  6261  000A78  0E15               	movlw	21
  6262  000A7A  6FB6               	movwf	___wmul@multiplicand& (0+255),b
  6263  000A7C  EC0D  F01A         	call	___wmul	;wreg free
  6264  000A80  0EFF               	movlw	255
  6265  000A82  0100               	movlb	0	; force () banked
  6266  000A84  6FC1               	movwf	??_verifieToucheEspace& (0+255),b
  6267  000A86  0EFF               	movlw	255
  6268  000A88  6FC2               	movwf	(??_verifieToucheEspace+1)& (0+255),b
  6269  000A8A  0E9C               	movlw	low _m_tabVue
  6270  000A8C  6FC3               	movwf	(??_verifieToucheEspace+2)& (0+255),b
  6271  000A8E  0E01               	movlw	high _m_tabVue
  6272  000A90  6FC4               	movwf	(??_verifieToucheEspace+3)& (0+255),b
  6273  000A92  51C1               	movf	??_verifieToucheEspace& (0+255),w,b
  6274  000A94  27C3               	addwf	(??_verifieToucheEspace+2)& (0+255),f,b
  6275  000A96  51C2               	movf	(??_verifieToucheEspace+1)& (0+255),w,b
  6276  000A98  23C4               	addwfc	(??_verifieToucheEspace+3)& (0+255),f,b
  6277  000A9A  0100               	movlb	0	; force () banked
  6278  000A9C  51B4               	movf	?___wmul& (0+255),w,b
  6279  000A9E  0100               	movlb	0	; force () banked
  6280  000AA0  27C3               	addwf	(??_verifieToucheEspace+2)& (0+255),f,b
  6281  000AA2  0100               	movlb	0	; force () banked
  6282  000AA4  51B5               	movf	(?___wmul+1)& (0+255),w,b
  6283  000AA6  0100               	movlb	0	; force () banked
  6284  000AA8  23C4               	addwfc	(??_verifieToucheEspace+3)& (0+255),f,b
  6285  000AAA  0100               	movlb	0	; force () banked
  6286  000AAC  51BE               	movf	verifieToucheEspace@colonne& (0+255),w,b
  6287  000AAE  0100               	movlb	0	; force () banked
  6288  000AB0  25C3               	addwf	(??_verifieToucheEspace+2)& (0+255),w,b
  6289  000AB2  6ED9               	movwf	fsr2l,c
  6290  000AB4  0100               	movlb	0	; force () banked
  6291  000AB6  51BF               	movf	(verifieToucheEspace@colonne+1)& (0+255),w,b
  6292  000AB8  0100               	movlb	0	; force () banked
  6293  000ABA  21C4               	addwfc	(??_verifieToucheEspace+3)& (0+255),w,b
  6294  000ABC  6EDA               	movwf	fsr2h,c
  6295  000ABE  0E20               	movlw	32
  6296  000AC0  18DE               	xorwf	postinc2,w,c
  6297  000AC2  B4D8               	btfsc	status,2,c
  6298  000AC4  EF66  F005         	goto	u1871
  6299  000AC8  EF68  F005         	goto	u1870
  6300  000ACC                     u1871:
  6301  000ACC  EFA0  F005         	goto	l2395
  6302  000AD0                     u1870:
  6303  000AD0                     
  6304                           ; BSR set to: 0
  6305                           ;main.c: 339: {;main.c: 340: tabVerif[i]=((ligne*100)+(colonne-1));
  6306  000AD0  0EFF               	movlw	255
  6307  000AD2  0100               	movlb	0	; force () banked
  6308  000AD4  6FC1               	movwf	??_verifieToucheEspace& (0+255),b
  6309  000AD6  0EFF               	movlw	255
  6310  000AD8  6FC2               	movwf	(??_verifieToucheEspace+1)& (0+255),b
  6311  000ADA  C0BC  F0B4         	movff	verifieToucheEspace@ligne,___wmul@multiplier
  6312  000ADE  C0BD  F0B5         	movff	verifieToucheEspace@ligne+1,___wmul@multiplier+1
  6313  000AE2  0E00               	movlw	0
  6314  000AE4  0100               	movlb	0	; force () banked
  6315  000AE6  6FB7               	movwf	(___wmul@multiplicand+1)& (0+255),b
  6316  000AE8  0E64               	movlw	100
  6317  000AEA  6FB6               	movwf	___wmul@multiplicand& (0+255),b
  6318  000AEC  EC0D  F01A         	call	___wmul	;wreg free
  6319  000AF0  0100               	movlb	0	; force () banked
  6320  000AF2  51BE               	movf	verifieToucheEspace@colonne& (0+255),w,b
  6321  000AF4  0100               	movlb	0	; force () banked
  6322  000AF6  27B4               	addwf	?___wmul& (0+255),f,b
  6323  000AF8  0100               	movlb	0	; force () banked
  6324  000AFA  51BF               	movf	(verifieToucheEspace@colonne+1)& (0+255),w,b
  6325  000AFC  0100               	movlb	0	; force () banked
  6326  000AFE  23B5               	addwfc	(?___wmul+1)& (0+255),f,b
  6327  000B00  0100               	movlb	0	; force () banked
  6328  000B02  51C1               	movf	??_verifieToucheEspace& (0+255),w,b
  6329  000B04  0100               	movlb	0	; force () banked
  6330  000B06  27B4               	addwf	?___wmul& (0+255),f,b
  6331  000B08  0100               	movlb	0	; force () banked
  6332  000B0A  51C2               	movf	(??_verifieToucheEspace+1)& (0+255),w,b
  6333  000B0C  0100               	movlb	0	; force () banked
  6334  000B0E  23B5               	addwfc	(?___wmul+1)& (0+255),f,b
  6335  000B10  0100               	movlb	0	; force () banked
  6336  000B12  51C6               	movf	verifieToucheEspace@i& (0+255),w,b
  6337  000B14  0D02               	mullw	2
  6338  000B16  CFF3 F0C3          	movff	prodl,??_verifieToucheEspace+2
  6339  000B1A  CFF4 F0C4          	movff	prodh,??_verifieToucheEspace+3
  6340  000B1E  0100               	movlb	0	; force () banked
  6341  000B20  51C3               	movf	(??_verifieToucheEspace+2)& (0+255),w,b
  6342  000B22  0100               	movlb	0	; force () banked
  6343  000B24  25BA               	addwf	verifieToucheEspace@tabVerif& (0+255),w,b
  6344  000B26  6ED9               	movwf	fsr2l,c
  6345  000B28  0100               	movlb	0	; force () banked
  6346  000B2A  51C4               	movf	(??_verifieToucheEspace+3)& (0+255),w,b
  6347  000B2C  0100               	movlb	0	; force () banked
  6348  000B2E  21BB               	addwfc	(verifieToucheEspace@tabVerif+1)& (0+255),w,b
  6349  000B30  6EDA               	movwf	fsr2h,c
  6350  000B32  0100               	movlb	0	; force () banked
  6351  000B34  C0B4  FFDE         	movff	?___wmul,postinc2
  6352  000B38  C0B5  FFDD         	movff	?___wmul+1,postdec2
  6353  000B3C                     
  6354                           ; BSR set to: 0
  6355                           ;main.c: 341: i++;
  6356  000B3C  0100               	movlb	0	; force () banked
  6357  000B3E  2BC6               	incf	verifieToucheEspace@i& (0+255),f,b
  6358  000B40                     l2395:
  6359                           
  6360                           ; BSR set to: 0
  6361                           ;main.c: 342: };main.c: 343: };main.c: 344: if(ligne!=3&&colonne!=0)
  6362  000B40  0E03               	movlw	3
  6363  000B42  0100               	movlb	0	; force () banked
  6364  000B44  19BC               	xorwf	verifieToucheEspace@ligne& (0+255),w,b
  6365  000B46  11BD               	iorwf	(verifieToucheEspace@ligne+1)& (0+255),w,b
  6366  000B48  B4D8               	btfsc	status,2,c
  6367  000B4A  EFA9  F005         	goto	u1881
  6368  000B4E  EFAB  F005         	goto	u1880
  6369  000B52                     u1881:
  6370  000B52  EF4B  F006         	goto	l2407
  6371  000B56                     u1880:
  6372  000B56                     
  6373                           ; BSR set to: 0
  6374  000B56  0100               	movlb	0	; force () banked
  6375  000B58  51BE               	movf	verifieToucheEspace@colonne& (0+255),w,b
  6376  000B5A  11BF               	iorwf	(verifieToucheEspace@colonne+1)& (0+255),w,b
  6377  000B5C  B4D8               	btfsc	status,2,c
  6378  000B5E  EFB3  F005         	goto	u1891
  6379  000B62  EFB5  F005         	goto	u1890
  6380  000B66                     u1891:
  6381  000B66  EF4B  F006         	goto	l2407
  6382  000B6A                     u1890:
  6383  000B6A                     
  6384                           ; BSR set to: 0
  6385                           ;main.c: 345: {;main.c: 346: if(m_tabMines[ligne+1][colonne-1]==' '&&m_tabVue[ligne+1][c
      +                          olonne-1]!=' ')
  6386  000B6A  C0BC  F0B4         	movff	verifieToucheEspace@ligne,___wmul@multiplier
  6387  000B6E  C0BD  F0B5         	movff	verifieToucheEspace@ligne+1,___wmul@multiplier+1
  6388  000B72  0E00               	movlw	0
  6389  000B74  0100               	movlb	0	; force () banked
  6390  000B76  6FB7               	movwf	(___wmul@multiplicand+1)& (0+255),b
  6391  000B78  0E15               	movlw	21
  6392  000B7A  6FB6               	movwf	___wmul@multiplicand& (0+255),b
  6393  000B7C  EC0D  F01A         	call	___wmul	;wreg free
  6394  000B80  0E60               	movlw	low _m_tabMines
  6395  000B82  0100               	movlb	0	; force () banked
  6396  000B84  6FC1               	movwf	??_verifieToucheEspace& (0+255),b
  6397  000B86  0E00               	movlw	high _m_tabMines
  6398  000B88  6FC2               	movwf	(??_verifieToucheEspace+1)& (0+255),b
  6399  000B8A  0E14               	movlw	20
  6400  000B8C  27C1               	addwf	??_verifieToucheEspace& (0+255),f,b
  6401  000B8E  0E00               	movlw	0
  6402  000B90  23C2               	addwfc	(??_verifieToucheEspace+1)& (0+255),f,b
  6403  000B92  0100               	movlb	0	; force () banked
  6404  000B94  51B4               	movf	?___wmul& (0+255),w,b
  6405  000B96  0100               	movlb	0	; force () banked
  6406  000B98  27C1               	addwf	??_verifieToucheEspace& (0+255),f,b
  6407  000B9A  0100               	movlb	0	; force () banked
  6408  000B9C  51B5               	movf	(?___wmul+1)& (0+255),w,b
  6409  000B9E  0100               	movlb	0	; force () banked
  6410  000BA0  23C2               	addwfc	(??_verifieToucheEspace+1)& (0+255),f,b
  6411  000BA2  0100               	movlb	0	; force () banked
  6412  000BA4  51BE               	movf	verifieToucheEspace@colonne& (0+255),w,b
  6413  000BA6  0100               	movlb	0	; force () banked
  6414  000BA8  25C1               	addwf	??_verifieToucheEspace& (0+255),w,b
  6415  000BAA  6ED9               	movwf	fsr2l,c
  6416  000BAC  0100               	movlb	0	; force () banked
  6417  000BAE  51BF               	movf	(verifieToucheEspace@colonne+1)& (0+255),w,b
  6418  000BB0  0100               	movlb	0	; force () banked
  6419  000BB2  21C2               	addwfc	(??_verifieToucheEspace+1)& (0+255),w,b
  6420  000BB4  6EDA               	movwf	fsr2h,c
  6421  000BB6  0E20               	movlw	32
  6422  000BB8  18DE               	xorwf	postinc2,w,c
  6423  000BBA  A4D8               	btfss	status,2,c
  6424  000BBC  EFE2  F005         	goto	u1901
  6425  000BC0  EFE4  F005         	goto	u1900
  6426  000BC4                     u1901:
  6427  000BC4  EF4B  F006         	goto	l2407
  6428  000BC8                     u1900:
  6429  000BC8                     
  6430                           ; BSR set to: 0
  6431  000BC8  C0BC  F0B4         	movff	verifieToucheEspace@ligne,___wmul@multiplier
  6432  000BCC  C0BD  F0B5         	movff	verifieToucheEspace@ligne+1,___wmul@multiplier+1
  6433  000BD0  0E00               	movlw	0
  6434  000BD2  0100               	movlb	0	; force () banked
  6435  000BD4  6FB7               	movwf	(___wmul@multiplicand+1)& (0+255),b
  6436  000BD6  0E15               	movlw	21
  6437  000BD8  6FB6               	movwf	___wmul@multiplicand& (0+255),b
  6438  000BDA  EC0D  F01A         	call	___wmul	;wreg free
  6439  000BDE  0E9C               	movlw	low _m_tabVue
  6440  000BE0  0100               	movlb	0	; force () banked
  6441  000BE2  6FC1               	movwf	??_verifieToucheEspace& (0+255),b
  6442  000BE4  0E01               	movlw	high _m_tabVue
  6443  000BE6  6FC2               	movwf	(??_verifieToucheEspace+1)& (0+255),b
  6444  000BE8  0E14               	movlw	20
  6445  000BEA  27C1               	addwf	??_verifieToucheEspace& (0+255),f,b
  6446  000BEC  0E00               	movlw	0
  6447  000BEE  23C2               	addwfc	(??_verifieToucheEspace+1)& (0+255),f,b
  6448  000BF0  0100               	movlb	0	; force () banked
  6449  000BF2  51B4               	movf	?___wmul& (0+255),w,b
  6450  000BF4  0100               	movlb	0	; force () banked
  6451  000BF6  27C1               	addwf	??_verifieToucheEspace& (0+255),f,b
  6452  000BF8  0100               	movlb	0	; force () banked
  6453  000BFA  51B5               	movf	(?___wmul+1)& (0+255),w,b
  6454  000BFC  0100               	movlb	0	; force () banked
  6455  000BFE  23C2               	addwfc	(??_verifieToucheEspace+1)& (0+255),f,b
  6456  000C00  0100               	movlb	0	; force () banked
  6457  000C02  51BE               	movf	verifieToucheEspace@colonne& (0+255),w,b
  6458  000C04  0100               	movlb	0	; force () banked
  6459  000C06  25C1               	addwf	??_verifieToucheEspace& (0+255),w,b
  6460  000C08  6ED9               	movwf	fsr2l,c
  6461  000C0A  0100               	movlb	0	; force () banked
  6462  000C0C  51BF               	movf	(verifieToucheEspace@colonne+1)& (0+255),w,b
  6463  000C0E  0100               	movlb	0	; force () banked
  6464  000C10  21C2               	addwfc	(??_verifieToucheEspace+1)& (0+255),w,b
  6465  000C12  6EDA               	movwf	fsr2h,c
  6466  000C14  0E20               	movlw	32
  6467  000C16  18DE               	xorwf	postinc2,w,c
  6468  000C18  B4D8               	btfsc	status,2,c
  6469  000C1A  EF11  F006         	goto	u1911
  6470  000C1E  EF13  F006         	goto	u1910
  6471  000C22                     u1911:
  6472  000C22  EF4B  F006         	goto	l2407
  6473  000C26                     u1910:
  6474  000C26                     
  6475                           ; BSR set to: 0
  6476                           ;main.c: 347: {;main.c: 348: tabVerif[i]=((ligne*100)+(colonne-1));
  6477  000C26  0EFF               	movlw	255
  6478  000C28  0100               	movlb	0	; force () banked
  6479  000C2A  6FC1               	movwf	??_verifieToucheEspace& (0+255),b
  6480  000C2C  0EFF               	movlw	255
  6481  000C2E  6FC2               	movwf	(??_verifieToucheEspace+1)& (0+255),b
  6482  000C30  C0BC  F0B4         	movff	verifieToucheEspace@ligne,___wmul@multiplier
  6483  000C34  C0BD  F0B5         	movff	verifieToucheEspace@ligne+1,___wmul@multiplier+1
  6484  000C38  0E00               	movlw	0
  6485  000C3A  0100               	movlb	0	; force () banked
  6486  000C3C  6FB7               	movwf	(___wmul@multiplicand+1)& (0+255),b
  6487  000C3E  0E64               	movlw	100
  6488  000C40  6FB6               	movwf	___wmul@multiplicand& (0+255),b
  6489  000C42  EC0D  F01A         	call	___wmul	;wreg free
  6490  000C46  0100               	movlb	0	; force () banked
  6491  000C48  51BE               	movf	verifieToucheEspace@colonne& (0+255),w,b
  6492  000C4A  0100               	movlb	0	; force () banked
  6493  000C4C  27B4               	addwf	?___wmul& (0+255),f,b
  6494  000C4E  0100               	movlb	0	; force () banked
  6495  000C50  51BF               	movf	(verifieToucheEspace@colonne+1)& (0+255),w,b
  6496  000C52  0100               	movlb	0	; force () banked
  6497  000C54  23B5               	addwfc	(?___wmul+1)& (0+255),f,b
  6498  000C56  0100               	movlb	0	; force () banked
  6499  000C58  51C1               	movf	??_verifieToucheEspace& (0+255),w,b
  6500  000C5A  0100               	movlb	0	; force () banked
  6501  000C5C  27B4               	addwf	?___wmul& (0+255),f,b
  6502  000C5E  0100               	movlb	0	; force () banked
  6503  000C60  51C2               	movf	(??_verifieToucheEspace+1)& (0+255),w,b
  6504  000C62  0100               	movlb	0	; force () banked
  6505  000C64  23B5               	addwfc	(?___wmul+1)& (0+255),f,b
  6506  000C66  0100               	movlb	0	; force () banked
  6507  000C68  51C6               	movf	verifieToucheEspace@i& (0+255),w,b
  6508  000C6A  0D02               	mullw	2
  6509  000C6C  CFF3 F0C3          	movff	prodl,??_verifieToucheEspace+2
  6510  000C70  CFF4 F0C4          	movff	prodh,??_verifieToucheEspace+3
  6511  000C74  0100               	movlb	0	; force () banked
  6512  000C76  51C3               	movf	(??_verifieToucheEspace+2)& (0+255),w,b
  6513  000C78  0100               	movlb	0	; force () banked
  6514  000C7A  25BA               	addwf	verifieToucheEspace@tabVerif& (0+255),w,b
  6515  000C7C  6ED9               	movwf	fsr2l,c
  6516  000C7E  0100               	movlb	0	; force () banked
  6517  000C80  51C4               	movf	(??_verifieToucheEspace+3)& (0+255),w,b
  6518  000C82  0100               	movlb	0	; force () banked
  6519  000C84  21BB               	addwfc	(verifieToucheEspace@tabVerif+1)& (0+255),w,b
  6520  000C86  6EDA               	movwf	fsr2h,c
  6521  000C88  0100               	movlb	0	; force () banked
  6522  000C8A  C0B4  FFDE         	movff	?___wmul,postinc2
  6523  000C8E  C0B5  FFDD         	movff	?___wmul+1,postdec2
  6524  000C92                     
  6525                           ; BSR set to: 0
  6526                           ;main.c: 349: i++;
  6527  000C92  0100               	movlb	0	; force () banked
  6528  000C94  2BC6               	incf	verifieToucheEspace@i& (0+255),f,b
  6529  000C96                     l2407:
  6530                           
  6531                           ; BSR set to: 0
  6532                           ;main.c: 350: };main.c: 351: };main.c: 352: if(ligne!=3&&colonne!=19)
  6533  000C96  0E03               	movlw	3
  6534  000C98  0100               	movlb	0	; force () banked
  6535  000C9A  19BC               	xorwf	verifieToucheEspace@ligne& (0+255),w,b
  6536  000C9C  11BD               	iorwf	(verifieToucheEspace@ligne+1)& (0+255),w,b
  6537  000C9E  B4D8               	btfsc	status,2,c
  6538  000CA0  EF54  F006         	goto	u1921
  6539  000CA4  EF56  F006         	goto	u1920
  6540  000CA8                     u1921:
  6541  000CA8  EFF7  F006         	goto	l2419
  6542  000CAC                     u1920:
  6543  000CAC                     
  6544                           ; BSR set to: 0
  6545  000CAC  0E13               	movlw	19
  6546  000CAE  0100               	movlb	0	; force () banked
  6547  000CB0  19BE               	xorwf	verifieToucheEspace@colonne& (0+255),w,b
  6548  000CB2  11BF               	iorwf	(verifieToucheEspace@colonne+1)& (0+255),w,b
  6549  000CB4  B4D8               	btfsc	status,2,c
  6550  000CB6  EF5F  F006         	goto	u1931
  6551  000CBA  EF61  F006         	goto	u1930
  6552  000CBE                     u1931:
  6553  000CBE  EFF7  F006         	goto	l2419
  6554  000CC2                     u1930:
  6555  000CC2                     
  6556                           ; BSR set to: 0
  6557                           ;main.c: 353: {;main.c: 354: if(m_tabMines[ligne+1][colonne+1]==' '&&m_tabVue[ligne+1][c
      +                          olonne+1]!=' ')
  6558  000CC2  C0BC  F0B4         	movff	verifieToucheEspace@ligne,___wmul@multiplier
  6559  000CC6  C0BD  F0B5         	movff	verifieToucheEspace@ligne+1,___wmul@multiplier+1
  6560  000CCA  0E00               	movlw	0
  6561  000CCC  0100               	movlb	0	; force () banked
  6562  000CCE  6FB7               	movwf	(___wmul@multiplicand+1)& (0+255),b
  6563  000CD0  0E15               	movlw	21
  6564  000CD2  6FB6               	movwf	___wmul@multiplicand& (0+255),b
  6565  000CD4  EC0D  F01A         	call	___wmul	;wreg free
  6566  000CD8  0E60               	movlw	low _m_tabMines
  6567  000CDA  0100               	movlb	0	; force () banked
  6568  000CDC  6FC1               	movwf	??_verifieToucheEspace& (0+255),b
  6569  000CDE  0E00               	movlw	high _m_tabMines
  6570  000CE0  6FC2               	movwf	(??_verifieToucheEspace+1)& (0+255),b
  6571  000CE2  0E16               	movlw	22
  6572  000CE4  27C1               	addwf	??_verifieToucheEspace& (0+255),f,b
  6573  000CE6  0E00               	movlw	0
  6574  000CE8  23C2               	addwfc	(??_verifieToucheEspace+1)& (0+255),f,b
  6575  000CEA  0100               	movlb	0	; force () banked
  6576  000CEC  51B4               	movf	?___wmul& (0+255),w,b
  6577  000CEE  0100               	movlb	0	; force () banked
  6578  000CF0  27C1               	addwf	??_verifieToucheEspace& (0+255),f,b
  6579  000CF2  0100               	movlb	0	; force () banked
  6580  000CF4  51B5               	movf	(?___wmul+1)& (0+255),w,b
  6581  000CF6  0100               	movlb	0	; force () banked
  6582  000CF8  23C2               	addwfc	(??_verifieToucheEspace+1)& (0+255),f,b
  6583  000CFA  0100               	movlb	0	; force () banked
  6584  000CFC  51BE               	movf	verifieToucheEspace@colonne& (0+255),w,b
  6585  000CFE  0100               	movlb	0	; force () banked
  6586  000D00  25C1               	addwf	??_verifieToucheEspace& (0+255),w,b
  6587  000D02  6ED9               	movwf	fsr2l,c
  6588  000D04  0100               	movlb	0	; force () banked
  6589  000D06  51BF               	movf	(verifieToucheEspace@colonne+1)& (0+255),w,b
  6590  000D08  0100               	movlb	0	; force () banked
  6591  000D0A  21C2               	addwfc	(??_verifieToucheEspace+1)& (0+255),w,b
  6592  000D0C  6EDA               	movwf	fsr2h,c
  6593  000D0E  0E20               	movlw	32
  6594  000D10  18DE               	xorwf	postinc2,w,c
  6595  000D12  A4D8               	btfss	status,2,c
  6596  000D14  EF8E  F006         	goto	u1941
  6597  000D18  EF90  F006         	goto	u1940
  6598  000D1C                     u1941:
  6599  000D1C  EFF7  F006         	goto	l2419
  6600  000D20                     u1940:
  6601  000D20                     
  6602                           ; BSR set to: 0
  6603  000D20  C0BC  F0B4         	movff	verifieToucheEspace@ligne,___wmul@multiplier
  6604  000D24  C0BD  F0B5         	movff	verifieToucheEspace@ligne+1,___wmul@multiplier+1
  6605  000D28  0E00               	movlw	0
  6606  000D2A  0100               	movlb	0	; force () banked
  6607  000D2C  6FB7               	movwf	(___wmul@multiplicand+1)& (0+255),b
  6608  000D2E  0E15               	movlw	21
  6609  000D30  6FB6               	movwf	___wmul@multiplicand& (0+255),b
  6610  000D32  EC0D  F01A         	call	___wmul	;wreg free
  6611  000D36  0E9C               	movlw	low _m_tabVue
  6612  000D38  0100               	movlb	0	; force () banked
  6613  000D3A  6FC1               	movwf	??_verifieToucheEspace& (0+255),b
  6614  000D3C  0E01               	movlw	high _m_tabVue
  6615  000D3E  6FC2               	movwf	(??_verifieToucheEspace+1)& (0+255),b
  6616  000D40  0E16               	movlw	22
  6617  000D42  27C1               	addwf	??_verifieToucheEspace& (0+255),f,b
  6618  000D44  0E00               	movlw	0
  6619  000D46  23C2               	addwfc	(??_verifieToucheEspace+1)& (0+255),f,b
  6620  000D48  0100               	movlb	0	; force () banked
  6621  000D4A  51B4               	movf	?___wmul& (0+255),w,b
  6622  000D4C  0100               	movlb	0	; force () banked
  6623  000D4E  27C1               	addwf	??_verifieToucheEspace& (0+255),f,b
  6624  000D50  0100               	movlb	0	; force () banked
  6625  000D52  51B5               	movf	(?___wmul+1)& (0+255),w,b
  6626  000D54  0100               	movlb	0	; force () banked
  6627  000D56  23C2               	addwfc	(??_verifieToucheEspace+1)& (0+255),f,b
  6628  000D58  0100               	movlb	0	; force () banked
  6629  000D5A  51BE               	movf	verifieToucheEspace@colonne& (0+255),w,b
  6630  000D5C  0100               	movlb	0	; force () banked
  6631  000D5E  25C1               	addwf	??_verifieToucheEspace& (0+255),w,b
  6632  000D60  6ED9               	movwf	fsr2l,c
  6633  000D62  0100               	movlb	0	; force () banked
  6634  000D64  51BF               	movf	(verifieToucheEspace@colonne+1)& (0+255),w,b
  6635  000D66  0100               	movlb	0	; force () banked
  6636  000D68  21C2               	addwfc	(??_verifieToucheEspace+1)& (0+255),w,b
  6637  000D6A  6EDA               	movwf	fsr2h,c
  6638  000D6C  0E20               	movlw	32
  6639  000D6E  18DE               	xorwf	postinc2,w,c
  6640  000D70  B4D8               	btfsc	status,2,c
  6641  000D72  EFBD  F006         	goto	u1951
  6642  000D76  EFBF  F006         	goto	u1950
  6643  000D7A                     u1951:
  6644  000D7A  EFF7  F006         	goto	l2419
  6645  000D7E                     u1950:
  6646  000D7E                     
  6647                           ; BSR set to: 0
  6648                           ;main.c: 355: {;main.c: 356: tabVerif[i]=((ligne*100)+(colonne-1));
  6649  000D7E  0EFF               	movlw	255
  6650  000D80  0100               	movlb	0	; force () banked
  6651  000D82  6FC1               	movwf	??_verifieToucheEspace& (0+255),b
  6652  000D84  0EFF               	movlw	255
  6653  000D86  6FC2               	movwf	(??_verifieToucheEspace+1)& (0+255),b
  6654  000D88  C0BC  F0B4         	movff	verifieToucheEspace@ligne,___wmul@multiplier
  6655  000D8C  C0BD  F0B5         	movff	verifieToucheEspace@ligne+1,___wmul@multiplier+1
  6656  000D90  0E00               	movlw	0
  6657  000D92  0100               	movlb	0	; force () banked
  6658  000D94  6FB7               	movwf	(___wmul@multiplicand+1)& (0+255),b
  6659  000D96  0E64               	movlw	100
  6660  000D98  6FB6               	movwf	___wmul@multiplicand& (0+255),b
  6661  000D9A  EC0D  F01A         	call	___wmul	;wreg free
  6662  000D9E  0100               	movlb	0	; force () banked
  6663  000DA0  51BE               	movf	verifieToucheEspace@colonne& (0+255),w,b
  6664  000DA2  0100               	movlb	0	; force () banked
  6665  000DA4  27B4               	addwf	?___wmul& (0+255),f,b
  6666  000DA6  0100               	movlb	0	; force () banked
  6667  000DA8  51BF               	movf	(verifieToucheEspace@colonne+1)& (0+255),w,b
  6668  000DAA  0100               	movlb	0	; force () banked
  6669  000DAC  23B5               	addwfc	(?___wmul+1)& (0+255),f,b
  6670  000DAE  0100               	movlb	0	; force () banked
  6671  000DB0  51C1               	movf	??_verifieToucheEspace& (0+255),w,b
  6672  000DB2  0100               	movlb	0	; force () banked
  6673  000DB4  27B4               	addwf	?___wmul& (0+255),f,b
  6674  000DB6  0100               	movlb	0	; force () banked
  6675  000DB8  51C2               	movf	(??_verifieToucheEspace+1)& (0+255),w,b
  6676  000DBA  0100               	movlb	0	; force () banked
  6677  000DBC  23B5               	addwfc	(?___wmul+1)& (0+255),f,b
  6678  000DBE  0100               	movlb	0	; force () banked
  6679  000DC0  51C6               	movf	verifieToucheEspace@i& (0+255),w,b
  6680  000DC2  0D02               	mullw	2
  6681  000DC4  CFF3 F0C3          	movff	prodl,??_verifieToucheEspace+2
  6682  000DC8  CFF4 F0C4          	movff	prodh,??_verifieToucheEspace+3
  6683  000DCC  0100               	movlb	0	; force () banked
  6684  000DCE  51C3               	movf	(??_verifieToucheEspace+2)& (0+255),w,b
  6685  000DD0  0100               	movlb	0	; force () banked
  6686  000DD2  25BA               	addwf	verifieToucheEspace@tabVerif& (0+255),w,b
  6687  000DD4  6ED9               	movwf	fsr2l,c
  6688  000DD6  0100               	movlb	0	; force () banked
  6689  000DD8  51C4               	movf	(??_verifieToucheEspace+3)& (0+255),w,b
  6690  000DDA  0100               	movlb	0	; force () banked
  6691  000DDC  21BB               	addwfc	(verifieToucheEspace@tabVerif+1)& (0+255),w,b
  6692  000DDE  6EDA               	movwf	fsr2h,c
  6693  000DE0  0100               	movlb	0	; force () banked
  6694  000DE2  C0B4  FFDE         	movff	?___wmul,postinc2
  6695  000DE6  C0B5  FFDD         	movff	?___wmul+1,postdec2
  6696  000DEA                     
  6697                           ; BSR set to: 0
  6698                           ;main.c: 357: i++;
  6699  000DEA  0100               	movlb	0	; force () banked
  6700  000DEC  2BC6               	incf	verifieToucheEspace@i& (0+255),f,b
  6701  000DEE                     l2419:
  6702                           
  6703                           ; BSR set to: 0
  6704                           ;main.c: 358: };main.c: 359: };main.c: 360: if(ligne!=0&&colonne!=0)
  6705  000DEE  0100               	movlb	0	; force () banked
  6706  000DF0  51BC               	movf	verifieToucheEspace@ligne& (0+255),w,b
  6707  000DF2  11BD               	iorwf	(verifieToucheEspace@ligne+1)& (0+255),w,b
  6708  000DF4  B4D8               	btfsc	status,2,c
  6709  000DF6  EFFF  F006         	goto	u1961
  6710  000DFA  EF01  F007         	goto	u1960
  6711  000DFE                     u1961:
  6712  000DFE  EFA9  F007         	goto	l2431
  6713  000E02                     u1960:
  6714  000E02                     
  6715                           ; BSR set to: 0
  6716  000E02  0100               	movlb	0	; force () banked
  6717  000E04  51BE               	movf	verifieToucheEspace@colonne& (0+255),w,b
  6718  000E06  11BF               	iorwf	(verifieToucheEspace@colonne+1)& (0+255),w,b
  6719  000E08  B4D8               	btfsc	status,2,c
  6720  000E0A  EF09  F007         	goto	u1971
  6721  000E0E  EF0B  F007         	goto	u1970
  6722  000E12                     u1971:
  6723  000E12  EFA9  F007         	goto	l2431
  6724  000E16                     u1970:
  6725  000E16                     
  6726                           ; BSR set to: 0
  6727                           ;main.c: 361: {;main.c: 362: if(m_tabMines[ligne-1][colonne-1]==' '&&m_tabVue[ligne-1][c
      +                          olonne-1]!=' ')
  6728  000E16  C0BC  F0B4         	movff	verifieToucheEspace@ligne,___wmul@multiplier
  6729  000E1A  C0BD  F0B5         	movff	verifieToucheEspace@ligne+1,___wmul@multiplier+1
  6730  000E1E  0E00               	movlw	0
  6731  000E20  0100               	movlb	0	; force () banked
  6732  000E22  6FB7               	movwf	(___wmul@multiplicand+1)& (0+255),b
  6733  000E24  0E15               	movlw	21
  6734  000E26  6FB6               	movwf	___wmul@multiplicand& (0+255),b
  6735  000E28  EC0D  F01A         	call	___wmul	;wreg free
  6736  000E2C  0EEA               	movlw	234
  6737  000E2E  0100               	movlb	0	; force () banked
  6738  000E30  6FC1               	movwf	??_verifieToucheEspace& (0+255),b
  6739  000E32  0EFF               	movlw	255
  6740  000E34  6FC2               	movwf	(??_verifieToucheEspace+1)& (0+255),b
  6741  000E36  0E60               	movlw	low _m_tabMines
  6742  000E38  6FC3               	movwf	(??_verifieToucheEspace+2)& (0+255),b
  6743  000E3A  0E00               	movlw	high _m_tabMines
  6744  000E3C  6FC4               	movwf	(??_verifieToucheEspace+3)& (0+255),b
  6745  000E3E  51C1               	movf	??_verifieToucheEspace& (0+255),w,b
  6746  000E40  27C3               	addwf	(??_verifieToucheEspace+2)& (0+255),f,b
  6747  000E42  51C2               	movf	(??_verifieToucheEspace+1)& (0+255),w,b
  6748  000E44  23C4               	addwfc	(??_verifieToucheEspace+3)& (0+255),f,b
  6749  000E46  0100               	movlb	0	; force () banked
  6750  000E48  51B4               	movf	?___wmul& (0+255),w,b
  6751  000E4A  0100               	movlb	0	; force () banked
  6752  000E4C  27C3               	addwf	(??_verifieToucheEspace+2)& (0+255),f,b
  6753  000E4E  0100               	movlb	0	; force () banked
  6754  000E50  51B5               	movf	(?___wmul+1)& (0+255),w,b
  6755  000E52  0100               	movlb	0	; force () banked
  6756  000E54  23C4               	addwfc	(??_verifieToucheEspace+3)& (0+255),f,b
  6757  000E56  0100               	movlb	0	; force () banked
  6758  000E58  51BE               	movf	verifieToucheEspace@colonne& (0+255),w,b
  6759  000E5A  0100               	movlb	0	; force () banked
  6760  000E5C  25C3               	addwf	(??_verifieToucheEspace+2)& (0+255),w,b
  6761  000E5E  6ED9               	movwf	fsr2l,c
  6762  000E60  0100               	movlb	0	; force () banked
  6763  000E62  51BF               	movf	(verifieToucheEspace@colonne+1)& (0+255),w,b
  6764  000E64  0100               	movlb	0	; force () banked
  6765  000E66  21C4               	addwfc	(??_verifieToucheEspace+3)& (0+255),w,b
  6766  000E68  6EDA               	movwf	fsr2h,c
  6767  000E6A  0E20               	movlw	32
  6768  000E6C  18DE               	xorwf	postinc2,w,c
  6769  000E6E  A4D8               	btfss	status,2,c
  6770  000E70  EF3C  F007         	goto	u1981
  6771  000E74  EF3E  F007         	goto	u1980
  6772  000E78                     u1981:
  6773  000E78  EFA9  F007         	goto	l2431
  6774  000E7C                     u1980:
  6775  000E7C                     
  6776                           ; BSR set to: 0
  6777  000E7C  C0BC  F0B4         	movff	verifieToucheEspace@ligne,___wmul@multiplier
  6778  000E80  C0BD  F0B5         	movff	verifieToucheEspace@ligne+1,___wmul@multiplier+1
  6779  000E84  0E00               	movlw	0
  6780  000E86  0100               	movlb	0	; force () banked
  6781  000E88  6FB7               	movwf	(___wmul@multiplicand+1)& (0+255),b
  6782  000E8A  0E15               	movlw	21
  6783  000E8C  6FB6               	movwf	___wmul@multiplicand& (0+255),b
  6784  000E8E  EC0D  F01A         	call	___wmul	;wreg free
  6785  000E92  0EEA               	movlw	234
  6786  000E94  0100               	movlb	0	; force () banked
  6787  000E96  6FC1               	movwf	??_verifieToucheEspace& (0+255),b
  6788  000E98  0EFF               	movlw	255
  6789  000E9A  6FC2               	movwf	(??_verifieToucheEspace+1)& (0+255),b
  6790  000E9C  0E9C               	movlw	low _m_tabVue
  6791  000E9E  6FC3               	movwf	(??_verifieToucheEspace+2)& (0+255),b
  6792  000EA0  0E01               	movlw	high _m_tabVue
  6793  000EA2  6FC4               	movwf	(??_verifieToucheEspace+3)& (0+255),b
  6794  000EA4  51C1               	movf	??_verifieToucheEspace& (0+255),w,b
  6795  000EA6  27C3               	addwf	(??_verifieToucheEspace+2)& (0+255),f,b
  6796  000EA8  51C2               	movf	(??_verifieToucheEspace+1)& (0+255),w,b
  6797  000EAA  23C4               	addwfc	(??_verifieToucheEspace+3)& (0+255),f,b
  6798  000EAC  0100               	movlb	0	; force () banked
  6799  000EAE  51B4               	movf	?___wmul& (0+255),w,b
  6800  000EB0  0100               	movlb	0	; force () banked
  6801  000EB2  27C3               	addwf	(??_verifieToucheEspace+2)& (0+255),f,b
  6802  000EB4  0100               	movlb	0	; force () banked
  6803  000EB6  51B5               	movf	(?___wmul+1)& (0+255),w,b
  6804  000EB8  0100               	movlb	0	; force () banked
  6805  000EBA  23C4               	addwfc	(??_verifieToucheEspace+3)& (0+255),f,b
  6806  000EBC  0100               	movlb	0	; force () banked
  6807  000EBE  51BE               	movf	verifieToucheEspace@colonne& (0+255),w,b
  6808  000EC0  0100               	movlb	0	; force () banked
  6809  000EC2  25C3               	addwf	(??_verifieToucheEspace+2)& (0+255),w,b
  6810  000EC4  6ED9               	movwf	fsr2l,c
  6811  000EC6  0100               	movlb	0	; force () banked
  6812  000EC8  51BF               	movf	(verifieToucheEspace@colonne+1)& (0+255),w,b
  6813  000ECA  0100               	movlb	0	; force () banked
  6814  000ECC  21C4               	addwfc	(??_verifieToucheEspace+3)& (0+255),w,b
  6815  000ECE  6EDA               	movwf	fsr2h,c
  6816  000ED0  0E20               	movlw	32
  6817  000ED2  18DE               	xorwf	postinc2,w,c
  6818  000ED4  B4D8               	btfsc	status,2,c
  6819  000ED6  EF6F  F007         	goto	u1991
  6820  000EDA  EF71  F007         	goto	u1990
  6821  000EDE                     u1991:
  6822  000EDE  EFA9  F007         	goto	l2431
  6823  000EE2                     u1990:
  6824  000EE2                     
  6825                           ; BSR set to: 0
  6826                           ;main.c: 363: {;main.c: 364: tabVerif[i]=((ligne*100)+(colonne-1));
  6827  000EE2  0EFF               	movlw	255
  6828  000EE4  0100               	movlb	0	; force () banked
  6829  000EE6  6FC1               	movwf	??_verifieToucheEspace& (0+255),b
  6830  000EE8  0EFF               	movlw	255
  6831  000EEA  6FC2               	movwf	(??_verifieToucheEspace+1)& (0+255),b
  6832  000EEC  C0BC  F0B4         	movff	verifieToucheEspace@ligne,___wmul@multiplier
  6833  000EF0  C0BD  F0B5         	movff	verifieToucheEspace@ligne+1,___wmul@multiplier+1
  6834  000EF4  0E00               	movlw	0
  6835  000EF6  0100               	movlb	0	; force () banked
  6836  000EF8  6FB7               	movwf	(___wmul@multiplicand+1)& (0+255),b
  6837  000EFA  0E64               	movlw	100
  6838  000EFC  6FB6               	movwf	___wmul@multiplicand& (0+255),b
  6839  000EFE  EC0D  F01A         	call	___wmul	;wreg free
  6840  000F02  0100               	movlb	0	; force () banked
  6841  000F04  51BE               	movf	verifieToucheEspace@colonne& (0+255),w,b
  6842  000F06  0100               	movlb	0	; force () banked
  6843  000F08  27B4               	addwf	?___wmul& (0+255),f,b
  6844  000F0A  0100               	movlb	0	; force () banked
  6845  000F0C  51BF               	movf	(verifieToucheEspace@colonne+1)& (0+255),w,b
  6846  000F0E  0100               	movlb	0	; force () banked
  6847  000F10  23B5               	addwfc	(?___wmul+1)& (0+255),f,b
  6848  000F12  0100               	movlb	0	; force () banked
  6849  000F14  51C1               	movf	??_verifieToucheEspace& (0+255),w,b
  6850  000F16  0100               	movlb	0	; force () banked
  6851  000F18  27B4               	addwf	?___wmul& (0+255),f,b
  6852  000F1A  0100               	movlb	0	; force () banked
  6853  000F1C  51C2               	movf	(??_verifieToucheEspace+1)& (0+255),w,b
  6854  000F1E  0100               	movlb	0	; force () banked
  6855  000F20  23B5               	addwfc	(?___wmul+1)& (0+255),f,b
  6856  000F22  0100               	movlb	0	; force () banked
  6857  000F24  51C6               	movf	verifieToucheEspace@i& (0+255),w,b
  6858  000F26  0D02               	mullw	2
  6859  000F28  CFF3 F0C3          	movff	prodl,??_verifieToucheEspace+2
  6860  000F2C  CFF4 F0C4          	movff	prodh,??_verifieToucheEspace+3
  6861  000F30  0100               	movlb	0	; force () banked
  6862  000F32  51C3               	movf	(??_verifieToucheEspace+2)& (0+255),w,b
  6863  000F34  0100               	movlb	0	; force () banked
  6864  000F36  25BA               	addwf	verifieToucheEspace@tabVerif& (0+255),w,b
  6865  000F38  6ED9               	movwf	fsr2l,c
  6866  000F3A  0100               	movlb	0	; force () banked
  6867  000F3C  51C4               	movf	(??_verifieToucheEspace+3)& (0+255),w,b
  6868  000F3E  0100               	movlb	0	; force () banked
  6869  000F40  21BB               	addwfc	(verifieToucheEspace@tabVerif+1)& (0+255),w,b
  6870  000F42  6EDA               	movwf	fsr2h,c
  6871  000F44  0100               	movlb	0	; force () banked
  6872  000F46  C0B4  FFDE         	movff	?___wmul,postinc2
  6873  000F4A  C0B5  FFDD         	movff	?___wmul+1,postdec2
  6874  000F4E                     
  6875                           ; BSR set to: 0
  6876                           ;main.c: 365: i++;
  6877  000F4E  0100               	movlb	0	; force () banked
  6878  000F50  2BC6               	incf	verifieToucheEspace@i& (0+255),f,b
  6879  000F52                     l2431:
  6880                           
  6881                           ; BSR set to: 0
  6882                           ;main.c: 366: };main.c: 367: };main.c: 368: if(ligne!=0&&colonne!=19)
  6883  000F52  0100               	movlb	0	; force () banked
  6884  000F54  51BC               	movf	verifieToucheEspace@ligne& (0+255),w,b
  6885  000F56  11BD               	iorwf	(verifieToucheEspace@ligne+1)& (0+255),w,b
  6886  000F58  B4D8               	btfsc	status,2,c
  6887  000F5A  EFB1  F007         	goto	u2001
  6888  000F5E  EFB3  F007         	goto	u2000
  6889  000F62                     u2001:
  6890  000F62  EF5C  F008         	goto	l193
  6891  000F66                     u2000:
  6892  000F66                     
  6893                           ; BSR set to: 0
  6894  000F66  0E13               	movlw	19
  6895  000F68  0100               	movlb	0	; force () banked
  6896  000F6A  19BE               	xorwf	verifieToucheEspace@colonne& (0+255),w,b
  6897  000F6C  11BF               	iorwf	(verifieToucheEspace@colonne+1)& (0+255),w,b
  6898  000F6E  B4D8               	btfsc	status,2,c
  6899  000F70  EFBC  F007         	goto	u2011
  6900  000F74  EFBE  F007         	goto	u2010
  6901  000F78                     u2011:
  6902  000F78  EF5C  F008         	goto	l193
  6903  000F7C                     u2010:
  6904  000F7C                     
  6905                           ; BSR set to: 0
  6906                           ;main.c: 369: {;main.c: 370: if(m_tabMines[ligne-1][colonne+1]==' '&&m_tabVue[ligne-1][c
      +                          olonne+1]!=' ')
  6907  000F7C  C0BC  F0B4         	movff	verifieToucheEspace@ligne,___wmul@multiplier
  6908  000F80  C0BD  F0B5         	movff	verifieToucheEspace@ligne+1,___wmul@multiplier+1
  6909  000F84  0E00               	movlw	0
  6910  000F86  0100               	movlb	0	; force () banked
  6911  000F88  6FB7               	movwf	(___wmul@multiplicand+1)& (0+255),b
  6912  000F8A  0E15               	movlw	21
  6913  000F8C  6FB6               	movwf	___wmul@multiplicand& (0+255),b
  6914  000F8E  EC0D  F01A         	call	___wmul	;wreg free
  6915  000F92  0EEC               	movlw	236
  6916  000F94  0100               	movlb	0	; force () banked
  6917  000F96  6FC1               	movwf	??_verifieToucheEspace& (0+255),b
  6918  000F98  0EFF               	movlw	255
  6919  000F9A  6FC2               	movwf	(??_verifieToucheEspace+1)& (0+255),b
  6920  000F9C  0E60               	movlw	low _m_tabMines
  6921  000F9E  6FC3               	movwf	(??_verifieToucheEspace+2)& (0+255),b
  6922  000FA0  0E00               	movlw	high _m_tabMines
  6923  000FA2  6FC4               	movwf	(??_verifieToucheEspace+3)& (0+255),b
  6924  000FA4  51C1               	movf	??_verifieToucheEspace& (0+255),w,b
  6925  000FA6  27C3               	addwf	(??_verifieToucheEspace+2)& (0+255),f,b
  6926  000FA8  51C2               	movf	(??_verifieToucheEspace+1)& (0+255),w,b
  6927  000FAA  23C4               	addwfc	(??_verifieToucheEspace+3)& (0+255),f,b
  6928  000FAC  0100               	movlb	0	; force () banked
  6929  000FAE  51B4               	movf	?___wmul& (0+255),w,b
  6930  000FB0  0100               	movlb	0	; force () banked
  6931  000FB2  27C3               	addwf	(??_verifieToucheEspace+2)& (0+255),f,b
  6932  000FB4  0100               	movlb	0	; force () banked
  6933  000FB6  51B5               	movf	(?___wmul+1)& (0+255),w,b
  6934  000FB8  0100               	movlb	0	; force () banked
  6935  000FBA  23C4               	addwfc	(??_verifieToucheEspace+3)& (0+255),f,b
  6936  000FBC  0100               	movlb	0	; force () banked
  6937  000FBE  51BE               	movf	verifieToucheEspace@colonne& (0+255),w,b
  6938  000FC0  0100               	movlb	0	; force () banked
  6939  000FC2  25C3               	addwf	(??_verifieToucheEspace+2)& (0+255),w,b
  6940  000FC4  6ED9               	movwf	fsr2l,c
  6941  000FC6  0100               	movlb	0	; force () banked
  6942  000FC8  51BF               	movf	(verifieToucheEspace@colonne+1)& (0+255),w,b
  6943  000FCA  0100               	movlb	0	; force () banked
  6944  000FCC  21C4               	addwfc	(??_verifieToucheEspace+3)& (0+255),w,b
  6945  000FCE  6EDA               	movwf	fsr2h,c
  6946  000FD0  0E20               	movlw	32
  6947  000FD2  18DE               	xorwf	postinc2,w,c
  6948  000FD4  A4D8               	btfss	status,2,c
  6949  000FD6  EFEF  F007         	goto	u2021
  6950  000FDA  EFF1  F007         	goto	u2020
  6951  000FDE                     u2021:
  6952  000FDE  EF5C  F008         	goto	l193
  6953  000FE2                     u2020:
  6954  000FE2                     
  6955                           ; BSR set to: 0
  6956  000FE2  C0BC  F0B4         	movff	verifieToucheEspace@ligne,___wmul@multiplier
  6957  000FE6  C0BD  F0B5         	movff	verifieToucheEspace@ligne+1,___wmul@multiplier+1
  6958  000FEA  0E00               	movlw	0
  6959  000FEC  0100               	movlb	0	; force () banked
  6960  000FEE  6FB7               	movwf	(___wmul@multiplicand+1)& (0+255),b
  6961  000FF0  0E15               	movlw	21
  6962  000FF2  6FB6               	movwf	___wmul@multiplicand& (0+255),b
  6963  000FF4  EC0D  F01A         	call	___wmul	;wreg free
  6964  000FF8  0EEC               	movlw	236
  6965  000FFA  0100               	movlb	0	; force () banked
  6966  000FFC  6FC1               	movwf	??_verifieToucheEspace& (0+255),b
  6967  000FFE  0EFF               	movlw	255
  6968  001000  6FC2               	movwf	(??_verifieToucheEspace+1)& (0+255),b
  6969  001002  0E9C               	movlw	low _m_tabVue
  6970  001004  6FC3               	movwf	(??_verifieToucheEspace+2)& (0+255),b
  6971  001006  0E01               	movlw	high _m_tabVue
  6972  001008  6FC4               	movwf	(??_verifieToucheEspace+3)& (0+255),b
  6973  00100A  51C1               	movf	??_verifieToucheEspace& (0+255),w,b
  6974  00100C  27C3               	addwf	(??_verifieToucheEspace+2)& (0+255),f,b
  6975  00100E  51C2               	movf	(??_verifieToucheEspace+1)& (0+255),w,b
  6976  001010  23C4               	addwfc	(??_verifieToucheEspace+3)& (0+255),f,b
  6977  001012  0100               	movlb	0	; force () banked
  6978  001014  51B4               	movf	?___wmul& (0+255),w,b
  6979  001016  0100               	movlb	0	; force () banked
  6980  001018  27C3               	addwf	(??_verifieToucheEspace+2)& (0+255),f,b
  6981  00101A  0100               	movlb	0	; force () banked
  6982  00101C  51B5               	movf	(?___wmul+1)& (0+255),w,b
  6983  00101E  0100               	movlb	0	; force () banked
  6984  001020  23C4               	addwfc	(??_verifieToucheEspace+3)& (0+255),f,b
  6985  001022  0100               	movlb	0	; force () banked
  6986  001024  51BE               	movf	verifieToucheEspace@colonne& (0+255),w,b
  6987  001026  0100               	movlb	0	; force () banked
  6988  001028  25C3               	addwf	(??_verifieToucheEspace+2)& (0+255),w,b
  6989  00102A  6ED9               	movwf	fsr2l,c
  6990  00102C  0100               	movlb	0	; force () banked
  6991  00102E  51BF               	movf	(verifieToucheEspace@colonne+1)& (0+255),w,b
  6992  001030  0100               	movlb	0	; force () banked
  6993  001032  21C4               	addwfc	(??_verifieToucheEspace+3)& (0+255),w,b
  6994  001034  6EDA               	movwf	fsr2h,c
  6995  001036  0E20               	movlw	32
  6996  001038  18DE               	xorwf	postinc2,w,c
  6997  00103A  B4D8               	btfsc	status,2,c
  6998  00103C  EF22  F008         	goto	u2031
  6999  001040  EF24  F008         	goto	u2030
  7000  001044                     u2031:
  7001  001044  EF5C  F008         	goto	l193
  7002  001048                     u2030:
  7003  001048                     
  7004                           ; BSR set to: 0
  7005                           ;main.c: 371: {;main.c: 372: tabVerif[i]=((ligne*100)+(colonne-1));
  7006  001048  0EFF               	movlw	255
  7007  00104A  0100               	movlb	0	; force () banked
  7008  00104C  6FC1               	movwf	??_verifieToucheEspace& (0+255),b
  7009  00104E  0EFF               	movlw	255
  7010  001050  6FC2               	movwf	(??_verifieToucheEspace+1)& (0+255),b
  7011  001052  C0BC  F0B4         	movff	verifieToucheEspace@ligne,___wmul@multiplier
  7012  001056  C0BD  F0B5         	movff	verifieToucheEspace@ligne+1,___wmul@multiplier+1
  7013  00105A  0E00               	movlw	0
  7014  00105C  0100               	movlb	0	; force () banked
  7015  00105E  6FB7               	movwf	(___wmul@multiplicand+1)& (0+255),b
  7016  001060  0E64               	movlw	100
  7017  001062  6FB6               	movwf	___wmul@multiplicand& (0+255),b
  7018  001064  EC0D  F01A         	call	___wmul	;wreg free
  7019  001068  0100               	movlb	0	; force () banked
  7020  00106A  51BE               	movf	verifieToucheEspace@colonne& (0+255),w,b
  7021  00106C  0100               	movlb	0	; force () banked
  7022  00106E  27B4               	addwf	?___wmul& (0+255),f,b
  7023  001070  0100               	movlb	0	; force () banked
  7024  001072  51BF               	movf	(verifieToucheEspace@colonne+1)& (0+255),w,b
  7025  001074  0100               	movlb	0	; force () banked
  7026  001076  23B5               	addwfc	(?___wmul+1)& (0+255),f,b
  7027  001078  0100               	movlb	0	; force () banked
  7028  00107A  51C1               	movf	??_verifieToucheEspace& (0+255),w,b
  7029  00107C  0100               	movlb	0	; force () banked
  7030  00107E  27B4               	addwf	?___wmul& (0+255),f,b
  7031  001080  0100               	movlb	0	; force () banked
  7032  001082  51C2               	movf	(??_verifieToucheEspace+1)& (0+255),w,b
  7033  001084  0100               	movlb	0	; force () banked
  7034  001086  23B5               	addwfc	(?___wmul+1)& (0+255),f,b
  7035  001088  0100               	movlb	0	; force () banked
  7036  00108A  51C6               	movf	verifieToucheEspace@i& (0+255),w,b
  7037  00108C  0D02               	mullw	2
  7038  00108E  CFF3 F0C3          	movff	prodl,??_verifieToucheEspace+2
  7039  001092  CFF4 F0C4          	movff	prodh,??_verifieToucheEspace+3
  7040  001096  0100               	movlb	0	; force () banked
  7041  001098  51C3               	movf	(??_verifieToucheEspace+2)& (0+255),w,b
  7042  00109A  0100               	movlb	0	; force () banked
  7043  00109C  25BA               	addwf	verifieToucheEspace@tabVerif& (0+255),w,b
  7044  00109E  6ED9               	movwf	fsr2l,c
  7045  0010A0  0100               	movlb	0	; force () banked
  7046  0010A2  51C4               	movf	(??_verifieToucheEspace+3)& (0+255),w,b
  7047  0010A4  0100               	movlb	0	; force () banked
  7048  0010A6  21BB               	addwfc	(verifieToucheEspace@tabVerif+1)& (0+255),w,b
  7049  0010A8  6EDA               	movwf	fsr2h,c
  7050  0010AA  0100               	movlb	0	; force () banked
  7051  0010AC  C0B4  FFDE         	movff	?___wmul,postinc2
  7052  0010B0  C0B5  FFDD         	movff	?___wmul+1,postdec2
  7053  0010B4                     
  7054                           ; BSR set to: 0
  7055                           ;main.c: 373: i++;
  7056  0010B4  0100               	movlb	0	; force () banked
  7057  0010B6  2BC6               	incf	verifieToucheEspace@i& (0+255),f,b
  7058  0010B8                     l193:
  7059                           
  7060                           ; BSR set to: 0
  7061  0010B8  0012               	return		;funcret
  7062  0010BA                     __end_of_verifieToucheEspace:
  7063                           	opt callstack 0
  7064                           
  7065 ;; *************** function _enleveEspaceAutour *****************
  7066 ;; Defined at:
  7067 ;;		line 501 in file "main.c"
  7068 ;; Parameters:    Size  Location     Type
  7069 ;;  x               1    wreg     unsigned char 
  7070 ;;  y               1    6[BANK0 ] unsigned char 
  7071 ;; Auto vars:     Size  Location     Type
  7072 ;;  x               1   17[BANK0 ] unsigned char 
  7073 ;;  i               1   19[BANK0 ] char 
  7074 ;;  j               1   18[BANK0 ] char 
  7075 ;;  yTabLigne       1   16[BANK0 ] unsigned char 
  7076 ;;  xTabCol         1   15[BANK0 ] unsigned char 
  7077 ;; Return value:  Size  Location     Type
  7078 ;;                  1    wreg      void 
  7079 ;; Registers used:
  7080 ;;		wreg, fsr1l, fsr1h, fsr2l, fsr2h, status,2, status,0, prodl, prodh, cstack
  7081 ;; Tracked objects:
  7082 ;;		On entry : 0/0
  7083 ;;		On exit  : 0/0
  7084 ;;		Unchanged: 0/0
  7085 ;; Data sizes:     COMRAM   BANK0   BANK1   BANK2   BANK3   BANK4   BANK5
  7086 ;;      Params:         0       1       0       0       0       0       0
  7087 ;;      Locals:         0       5       0       0       0       0       0
  7088 ;;      Temps:          0       8       0       0       0       0       0
  7089 ;;      Totals:         0      14       0       0       0       0       0
  7090 ;;Total ram usage:       14 bytes
  7091 ;; Hardware stack levels used:    1
  7092 ;; Hardware stack levels required when called:    4
  7093 ;; This function calls:
  7094 ;;		___wmul
  7095 ;;		_lcd_ecritChar
  7096 ;;		_lcd_gotoXY
  7097 ;; This function is called by:
  7098 ;;		_openSpaces
  7099 ;; This function uses a non-reentrant model
  7100 ;;
  7101                           
  7102                           	psect	text27
  7103  001978                     __ptext27:
  7104                           	opt callstack 0
  7105  001978                     _enleveEspaceAutour:
  7106                           	opt callstack 23
  7107                           
  7108                           ; BSR set to: 0
  7109                           ;incstack = 0
  7110                           ;enleveEspaceAutour@x stored from wreg
  7111  001978  0100               	movlb	0	; force () banked
  7112  00197A  6FC5               	movwf	enleveEspaceAutour@x& (0+255),b
  7113  00197C                     
  7114                           ;main.c: 503: unsigned char xTabCol=x;
  7115  00197C  C0C5  F0C3         	movff	enleveEspaceAutour@x,enleveEspaceAutour@xTabCol
  7116  001980                     
  7117                           ;main.c: 504: unsigned char yTabLigne=y;
  7118  001980  C0BA  F0C4         	movff	enleveEspaceAutour@y,enleveEspaceAutour@yTabLigne
  7119  001984                     
  7120                           ;main.c: 507: for(signed char j=-1;j<=1;j++)
  7121  001984  0100               	movlb	0	; force () banked
  7122  001986  69C6               	setf	enleveEspaceAutour@j& (0+255),b
  7123  001988                     
  7124                           ; BSR set to: 0
  7125  001988  0100               	movlb	0	; force () banked
  7126  00198A  51C6               	movf	enleveEspaceAutour@j& (0+255),w,b
  7127  00198C  0A80               	xorlw	128
  7128  00198E  0F7E               	addlw	-130
  7129  001990  A0D8               	btfss	status,0,c
  7130  001992  EFCD  F00C         	goto	u2041
  7131  001996  EFCF  F00C         	goto	u2040
  7132  00199A                     u2041:
  7133  00199A  EFD1  F00C         	goto	l2453
  7134  00199E                     u2040:
  7135  00199E  EF7B  F00E         	goto	l247
  7136  0019A2                     l2453:
  7137                           
  7138                           ; BSR set to: 0
  7139                           ;main.c: 508: {;main.c: 509: if(y==0&&j==-1)
  7140  0019A2  0100               	movlb	0	; force () banked
  7141  0019A4  51BA               	movf	enleveEspaceAutour@y& (0+255),w,b
  7142  0019A6  A4D8               	btfss	status,2,c
  7143  0019A8  EFD8  F00C         	goto	u2051
  7144  0019AC  EFDA  F00C         	goto	u2050
  7145  0019B0                     u2051:
  7146  0019B0  EFE6  F00C         	goto	l2459
  7147  0019B4                     u2050:
  7148  0019B4                     
  7149                           ; BSR set to: 0
  7150  0019B4  0100               	movlb	0	; force () banked
  7151  0019B6  29C6               	incf	enleveEspaceAutour@j& (0+255),w,b
  7152  0019B8  A4D8               	btfss	status,2,c
  7153  0019BA  EFE1  F00C         	goto	u2061
  7154  0019BE  EFE3  F00C         	goto	u2060
  7155  0019C2                     u2061:
  7156  0019C2  EFE6  F00C         	goto	l2459
  7157  0019C6                     u2060:
  7158  0019C6                     
  7159                           ; BSR set to: 0
  7160                           ;main.c: 510: j=0;
  7161  0019C6  0E00               	movlw	0
  7162  0019C8  0100               	movlb	0	; force () banked
  7163  0019CA  6FC6               	movwf	enleveEspaceAutour@j& (0+255),b
  7164  0019CC                     l2459:
  7165                           
  7166                           ; BSR set to: 0
  7167                           ;main.c: 511: for(signed char i=-1;i<=1;i++)
  7168  0019CC  0100               	movlb	0	; force () banked
  7169  0019CE  69C7               	setf	enleveEspaceAutour@i& (0+255),b
  7170  0019D0                     
  7171                           ; BSR set to: 0
  7172  0019D0  0100               	movlb	0	; force () banked
  7173  0019D2  51C7               	movf	enleveEspaceAutour@i& (0+255),w,b
  7174  0019D4  0A80               	xorlw	128
  7175  0019D6  0F7E               	addlw	-130
  7176  0019D8  A0D8               	btfss	status,0,c
  7177  0019DA  EFF1  F00C         	goto	u2071
  7178  0019DE  EFF3  F00C         	goto	u2070
  7179  0019E2                     u2071:
  7180  0019E2  EFF5  F00C         	goto	l2465
  7181  0019E6                     u2070:
  7182  0019E6  EF58  F00E         	goto	l2491
  7183  0019EA                     l2465:
  7184                           
  7185                           ; BSR set to: 0
  7186                           ;main.c: 512: {;main.c: 513: if(x==0&&i==-1)
  7187  0019EA  0100               	movlb	0	; force () banked
  7188  0019EC  51C5               	movf	enleveEspaceAutour@x& (0+255),w,b
  7189  0019EE  A4D8               	btfss	status,2,c
  7190  0019F0  EFFC  F00C         	goto	u2081
  7191  0019F4  EFFE  F00C         	goto	u2080
  7192  0019F8                     u2081:
  7193  0019F8  EF0A  F00D         	goto	l2471
  7194  0019FC                     u2080:
  7195  0019FC                     
  7196                           ; BSR set to: 0
  7197  0019FC  0100               	movlb	0	; force () banked
  7198  0019FE  29C7               	incf	enleveEspaceAutour@i& (0+255),w,b
  7199  001A00  A4D8               	btfss	status,2,c
  7200  001A02  EF05  F00D         	goto	u2091
  7201  001A06  EF07  F00D         	goto	u2090
  7202  001A0A                     u2091:
  7203  001A0A  EF0A  F00D         	goto	l2471
  7204  001A0E                     u2090:
  7205  001A0E                     
  7206                           ; BSR set to: 0
  7207                           ;main.c: 514: i=0;
  7208  001A0E  0E00               	movlw	0
  7209  001A10  0100               	movlb	0	; force () banked
  7210  001A12  6FC7               	movwf	enleveEspaceAutour@i& (0+255),b
  7211  001A14                     l2471:
  7212                           
  7213                           ; BSR set to: 0
  7214                           ;main.c: 516: if(m_tabMines[y+j][x+i]!=2&&m_tabVue[y+j][x+i]==1)
  7215  001A14  C0C7  F0BB         	movff	enleveEspaceAutour@i,??_enleveEspaceAutour
  7216  001A18  0100               	movlb	0	; force () banked
  7217  001A1A  6BBC               	clrf	(??_enleveEspaceAutour+1)& (0+255),b
  7218  001A1C  BFBB               	btfsc	??_enleveEspaceAutour& (0+255),7,b
  7219  001A1E  07BC               	decf	(??_enleveEspaceAutour+1)& (0+255),f,b
  7220  001A20  0100               	movlb	0	; force () banked
  7221  001A22  51C6               	movf	enleveEspaceAutour@j& (0+255),w,b
  7222  001A24  0100               	movlb	0	; force () banked
  7223  001A26  6FB4               	movwf	___wmul@multiplier& (0+255),b
  7224  001A28  6BB5               	clrf	(___wmul@multiplier+1)& (0+255),b
  7225  001A2A  BFB4               	btfsc	___wmul@multiplier& (0+255),7,b
  7226  001A2C  07B5               	decf	(___wmul@multiplier+1)& (0+255),f,b
  7227  001A2E  0E00               	movlw	0
  7228  001A30  0100               	movlb	0	; force () banked
  7229  001A32  6FB7               	movwf	(___wmul@multiplicand+1)& (0+255),b
  7230  001A34  0E15               	movlw	21
  7231  001A36  6FB6               	movwf	___wmul@multiplicand& (0+255),b
  7232  001A38  EC0D  F01A         	call	___wmul	;wreg free
  7233  001A3C  0100               	movlb	0	; force () banked
  7234  001A3E  51BA               	movf	enleveEspaceAutour@y& (0+255),w,b
  7235  001A40  0D15               	mullw	21
  7236  001A42  0E60               	movlw	low _m_tabMines
  7237  001A44  0100               	movlb	0	; force () banked
  7238  001A46  6FBD               	movwf	(??_enleveEspaceAutour+2)& (0+255),b
  7239  001A48  0E00               	movlw	high _m_tabMines
  7240  001A4A  6FBE               	movwf	(??_enleveEspaceAutour+3)& (0+255),b
  7241  001A4C  50F3               	movf	243,w,c
  7242  001A4E  27BD               	addwf	(??_enleveEspaceAutour+2)& (0+255),f,b
  7243  001A50  50F4               	movf	244,w,c
  7244  001A52  23BE               	addwfc	(??_enleveEspaceAutour+3)& (0+255),f,b
  7245  001A54  0100               	movlb	0	; force () banked
  7246  001A56  51B4               	movf	?___wmul& (0+255),w,b
  7247  001A58  0100               	movlb	0	; force () banked
  7248  001A5A  27BD               	addwf	(??_enleveEspaceAutour+2)& (0+255),f,b
  7249  001A5C  0100               	movlb	0	; force () banked
  7250  001A5E  51B5               	movf	(?___wmul+1)& (0+255),w,b
  7251  001A60  0100               	movlb	0	; force () banked
  7252  001A62  23BE               	addwfc	(??_enleveEspaceAutour+3)& (0+255),f,b
  7253  001A64  0100               	movlb	0	; force () banked
  7254  001A66  51C5               	movf	enleveEspaceAutour@x& (0+255),w,b
  7255  001A68  0100               	movlb	0	; force () banked
  7256  001A6A  27BD               	addwf	(??_enleveEspaceAutour+2)& (0+255),f,b
  7257  001A6C  0E00               	movlw	0
  7258  001A6E  23BE               	addwfc	(??_enleveEspaceAutour+3)& (0+255),f,b
  7259  001A70  51BB               	movf	??_enleveEspaceAutour& (0+255),w,b
  7260  001A72  25BD               	addwf	(??_enleveEspaceAutour+2)& (0+255),w,b
  7261  001A74  6ED9               	movwf	fsr2l,c
  7262  001A76  51BC               	movf	(??_enleveEspaceAutour+1)& (0+255),w,b
  7263  001A78  21BE               	addwfc	(??_enleveEspaceAutour+3)& (0+255),w,b
  7264  001A7A  6EDA               	movwf	fsr2h,c
  7265  001A7C  0E02               	movlw	2
  7266  001A7E  18DE               	xorwf	postinc2,w,c
  7267  001A80  B4D8               	btfsc	status,2,c
  7268  001A82  EF45  F00D         	goto	u2101
  7269  001A86  EF47  F00D         	goto	u2100
  7270  001A8A                     u2101:
  7271  001A8A  EF35  F00E         	goto	l2481
  7272  001A8E                     u2100:
  7273  001A8E                     
  7274                           ; BSR set to: 0
  7275  001A8E  C0C7  F0BB         	movff	enleveEspaceAutour@i,??_enleveEspaceAutour
  7276  001A92  0100               	movlb	0	; force () banked
  7277  001A94  6BBC               	clrf	(??_enleveEspaceAutour+1)& (0+255),b
  7278  001A96  BFBB               	btfsc	??_enleveEspaceAutour& (0+255),7,b
  7279  001A98  07BC               	decf	(??_enleveEspaceAutour+1)& (0+255),f,b
  7280  001A9A  0100               	movlb	0	; force () banked
  7281  001A9C  51C6               	movf	enleveEspaceAutour@j& (0+255),w,b
  7282  001A9E  0100               	movlb	0	; force () banked
  7283  001AA0  6FB4               	movwf	___wmul@multiplier& (0+255),b
  7284  001AA2  6BB5               	clrf	(___wmul@multiplier+1)& (0+255),b
  7285  001AA4  BFB4               	btfsc	___wmul@multiplier& (0+255),7,b
  7286  001AA6  07B5               	decf	(___wmul@multiplier+1)& (0+255),f,b
  7287  001AA8  0E00               	movlw	0
  7288  001AAA  0100               	movlb	0	; force () banked
  7289  001AAC  6FB7               	movwf	(___wmul@multiplicand+1)& (0+255),b
  7290  001AAE  0E15               	movlw	21
  7291  001AB0  6FB6               	movwf	___wmul@multiplicand& (0+255),b
  7292  001AB2  EC0D  F01A         	call	___wmul	;wreg free
  7293  001AB6  0100               	movlb	0	; force () banked
  7294  001AB8  51BA               	movf	enleveEspaceAutour@y& (0+255),w,b
  7295  001ABA  0D15               	mullw	21
  7296  001ABC  0E9C               	movlw	low _m_tabVue
  7297  001ABE  0100               	movlb	0	; force () banked
  7298  001AC0  6FBD               	movwf	(??_enleveEspaceAutour+2)& (0+255),b
  7299  001AC2  0E01               	movlw	high _m_tabVue
  7300  001AC4  6FBE               	movwf	(??_enleveEspaceAutour+3)& (0+255),b
  7301  001AC6  50F3               	movf	243,w,c
  7302  001AC8  27BD               	addwf	(??_enleveEspaceAutour+2)& (0+255),f,b
  7303  001ACA  50F4               	movf	244,w,c
  7304  001ACC  23BE               	addwfc	(??_enleveEspaceAutour+3)& (0+255),f,b
  7305  001ACE  0100               	movlb	0	; force () banked
  7306  001AD0  51B4               	movf	?___wmul& (0+255),w,b
  7307  001AD2  0100               	movlb	0	; force () banked
  7308  001AD4  27BD               	addwf	(??_enleveEspaceAutour+2)& (0+255),f,b
  7309  001AD6  0100               	movlb	0	; force () banked
  7310  001AD8  51B5               	movf	(?___wmul+1)& (0+255),w,b
  7311  001ADA  0100               	movlb	0	; force () banked
  7312  001ADC  23BE               	addwfc	(??_enleveEspaceAutour+3)& (0+255),f,b
  7313  001ADE  0100               	movlb	0	; force () banked
  7314  001AE0  51C5               	movf	enleveEspaceAutour@x& (0+255),w,b
  7315  001AE2  0100               	movlb	0	; force () banked
  7316  001AE4  27BD               	addwf	(??_enleveEspaceAutour+2)& (0+255),f,b
  7317  001AE6  0E00               	movlw	0
  7318  001AE8  23BE               	addwfc	(??_enleveEspaceAutour+3)& (0+255),f,b
  7319  001AEA  51BB               	movf	??_enleveEspaceAutour& (0+255),w,b
  7320  001AEC  25BD               	addwf	(??_enleveEspaceAutour+2)& (0+255),w,b
  7321  001AEE  6ED9               	movwf	fsr2l,c
  7322  001AF0  51BC               	movf	(??_enleveEspaceAutour+1)& (0+255),w,b
  7323  001AF2  21BE               	addwfc	(??_enleveEspaceAutour+3)& (0+255),w,b
  7324  001AF4  6EDA               	movwf	fsr2h,c
  7325  001AF6  04DE               	decf	postinc2,w,c
  7326  001AF8  A4D8               	btfss	status,2,c
  7327  001AFA  EF81  F00D         	goto	u2111
  7328  001AFE  EF83  F00D         	goto	u2110
  7329  001B02                     u2111:
  7330  001B02  EF35  F00E         	goto	l2481
  7331  001B06                     u2110:
  7332  001B06                     
  7333                           ; BSR set to: 0
  7334                           ;main.c: 517: {;main.c: 518: lcd_gotoXY((x+1+i),(y+1+j));
  7335  001B06  0100               	movlb	0	; force () banked
  7336  001B08  51C6               	movf	enleveEspaceAutour@j& (0+255),w,b
  7337  001B0A  0100               	movlb	0	; force () banked
  7338  001B0C  25BA               	addwf	enleveEspaceAutour@y& (0+255),w,b
  7339  001B0E  0100               	movlb	0	; force () banked
  7340  001B10  6FBB               	movwf	??_enleveEspaceAutour& (0+255),b
  7341  001B12  29BB               	incf	??_enleveEspaceAutour& (0+255),w,b
  7342  001B14  0100               	movlb	0	; force () banked
  7343  001B16  6FB7               	movwf	lcd_gotoXY@y& (0+255),b
  7344  001B18  0100               	movlb	0	; force () banked
  7345  001B1A  51C7               	movf	enleveEspaceAutour@i& (0+255),w,b
  7346  001B1C  0100               	movlb	0	; force () banked
  7347  001B1E  25C5               	addwf	enleveEspaceAutour@x& (0+255),w,b
  7348  001B20  0100               	movlb	0	; force () banked
  7349  001B22  6FBC               	movwf	(??_enleveEspaceAutour+1)& (0+255),b
  7350  001B24  29BC               	incf	(??_enleveEspaceAutour+1)& (0+255),w,b
  7351  001B26  EC6D  F017         	call	_lcd_gotoXY
  7352  001B2A                     
  7353                           ;main.c: 519: m_tabVue[y+j][x+i]=m_tabMines[y+j][x+i];
  7354  001B2A  C0C7  F0BB         	movff	enleveEspaceAutour@i,??_enleveEspaceAutour
  7355  001B2E  0100               	movlb	0	; force () banked
  7356  001B30  6BBC               	clrf	(??_enleveEspaceAutour+1)& (0+255),b
  7357  001B32  BFBB               	btfsc	??_enleveEspaceAutour& (0+255),7,b
  7358  001B34  07BC               	decf	(??_enleveEspaceAutour+1)& (0+255),f,b
  7359  001B36  0100               	movlb	0	; force () banked
  7360  001B38  51C6               	movf	enleveEspaceAutour@j& (0+255),w,b
  7361  001B3A  0100               	movlb	0	; force () banked
  7362  001B3C  6FB4               	movwf	___wmul@multiplier& (0+255),b
  7363  001B3E  6BB5               	clrf	(___wmul@multiplier+1)& (0+255),b
  7364  001B40  BFB4               	btfsc	___wmul@multiplier& (0+255),7,b
  7365  001B42  07B5               	decf	(___wmul@multiplier+1)& (0+255),f,b
  7366  001B44  0E00               	movlw	0
  7367  001B46  0100               	movlb	0	; force () banked
  7368  001B48  6FB7               	movwf	(___wmul@multiplicand+1)& (0+255),b
  7369  001B4A  0E15               	movlw	21
  7370  001B4C  6FB6               	movwf	___wmul@multiplicand& (0+255),b
  7371  001B4E  EC0D  F01A         	call	___wmul	;wreg free
  7372  001B52  0100               	movlb	0	; force () banked
  7373  001B54  51BA               	movf	enleveEspaceAutour@y& (0+255),w,b
  7374  001B56  0D15               	mullw	21
  7375  001B58  0E60               	movlw	low _m_tabMines
  7376  001B5A  0100               	movlb	0	; force () banked
  7377  001B5C  6FBD               	movwf	(??_enleveEspaceAutour+2)& (0+255),b
  7378  001B5E  0E00               	movlw	high _m_tabMines
  7379  001B60  6FBE               	movwf	(??_enleveEspaceAutour+3)& (0+255),b
  7380  001B62  50F3               	movf	243,w,c
  7381  001B64  27BD               	addwf	(??_enleveEspaceAutour+2)& (0+255),f,b
  7382  001B66  50F4               	movf	244,w,c
  7383  001B68  23BE               	addwfc	(??_enleveEspaceAutour+3)& (0+255),f,b
  7384  001B6A  0100               	movlb	0	; force () banked
  7385  001B6C  51B4               	movf	?___wmul& (0+255),w,b
  7386  001B6E  0100               	movlb	0	; force () banked
  7387  001B70  27BD               	addwf	(??_enleveEspaceAutour+2)& (0+255),f,b
  7388  001B72  0100               	movlb	0	; force () banked
  7389  001B74  51B5               	movf	(?___wmul+1)& (0+255),w,b
  7390  001B76  0100               	movlb	0	; force () banked
  7391  001B78  23BE               	addwfc	(??_enleveEspaceAutour+3)& (0+255),f,b
  7392  001B7A  0100               	movlb	0	; force () banked
  7393  001B7C  51C5               	movf	enleveEspaceAutour@x& (0+255),w,b
  7394  001B7E  0100               	movlb	0	; force () banked
  7395  001B80  27BD               	addwf	(??_enleveEspaceAutour+2)& (0+255),f,b
  7396  001B82  0E00               	movlw	0
  7397  001B84  23BE               	addwfc	(??_enleveEspaceAutour+3)& (0+255),f,b
  7398  001B86  51BB               	movf	??_enleveEspaceAutour& (0+255),w,b
  7399  001B88  25BD               	addwf	(??_enleveEspaceAutour+2)& (0+255),w,b
  7400  001B8A  6ED9               	movwf	fsr2l,c
  7401  001B8C  51BC               	movf	(??_enleveEspaceAutour+1)& (0+255),w,b
  7402  001B8E  21BE               	addwfc	(??_enleveEspaceAutour+3)& (0+255),w,b
  7403  001B90  6EDA               	movwf	fsr2h,c
  7404  001B92  C0C7  F0BF         	movff	enleveEspaceAutour@i,??_enleveEspaceAutour+4
  7405  001B96  6BC0               	clrf	(??_enleveEspaceAutour+5)& (0+255),b
  7406  001B98  BFBF               	btfsc	(??_enleveEspaceAutour+4)& (0+255),7,b
  7407  001B9A  07C0               	decf	(??_enleveEspaceAutour+5)& (0+255),f,b
  7408  001B9C  0100               	movlb	0	; force () banked
  7409  001B9E  51C6               	movf	enleveEspaceAutour@j& (0+255),w,b
  7410  001BA0  0100               	movlb	0	; force () banked
  7411  001BA2  6FB4               	movwf	___wmul@multiplier& (0+255),b
  7412  001BA4  6BB5               	clrf	(___wmul@multiplier+1)& (0+255),b
  7413  001BA6  BFB4               	btfsc	___wmul@multiplier& (0+255),7,b
  7414  001BA8  07B5               	decf	(___wmul@multiplier+1)& (0+255),f,b
  7415  001BAA  0E00               	movlw	0
  7416  001BAC  0100               	movlb	0	; force () banked
  7417  001BAE  6FB7               	movwf	(___wmul@multiplicand+1)& (0+255),b
  7418  001BB0  0E15               	movlw	21
  7419  001BB2  6FB6               	movwf	___wmul@multiplicand& (0+255),b
  7420  001BB4  EC0D  F01A         	call	___wmul	;wreg free
  7421  001BB8  0100               	movlb	0	; force () banked
  7422  001BBA  51BA               	movf	enleveEspaceAutour@y& (0+255),w,b
  7423  001BBC  0D15               	mullw	21
  7424  001BBE  0E9C               	movlw	low _m_tabVue
  7425  001BC0  0100               	movlb	0	; force () banked
  7426  001BC2  6FC1               	movwf	(??_enleveEspaceAutour+6)& (0+255),b
  7427  001BC4  0E01               	movlw	high _m_tabVue
  7428  001BC6  6FC2               	movwf	(??_enleveEspaceAutour+7)& (0+255),b
  7429  001BC8  50F3               	movf	243,w,c
  7430  001BCA  27C1               	addwf	(??_enleveEspaceAutour+6)& (0+255),f,b
  7431  001BCC  50F4               	movf	244,w,c
  7432  001BCE  23C2               	addwfc	(??_enleveEspaceAutour+7)& (0+255),f,b
  7433  001BD0  0100               	movlb	0	; force () banked
  7434  001BD2  51B4               	movf	?___wmul& (0+255),w,b
  7435  001BD4  0100               	movlb	0	; force () banked
  7436  001BD6  27C1               	addwf	(??_enleveEspaceAutour+6)& (0+255),f,b
  7437  001BD8  0100               	movlb	0	; force () banked
  7438  001BDA  51B5               	movf	(?___wmul+1)& (0+255),w,b
  7439  001BDC  0100               	movlb	0	; force () banked
  7440  001BDE  23C2               	addwfc	(??_enleveEspaceAutour+7)& (0+255),f,b
  7441  001BE0  0100               	movlb	0	; force () banked
  7442  001BE2  51C5               	movf	enleveEspaceAutour@x& (0+255),w,b
  7443  001BE4  0100               	movlb	0	; force () banked
  7444  001BE6  27C1               	addwf	(??_enleveEspaceAutour+6)& (0+255),f,b
  7445  001BE8  0E00               	movlw	0
  7446  001BEA  23C2               	addwfc	(??_enleveEspaceAutour+7)& (0+255),f,b
  7447  001BEC  51BF               	movf	(??_enleveEspaceAutour+4)& (0+255),w,b
  7448  001BEE  25C1               	addwf	(??_enleveEspaceAutour+6)& (0+255),w,b
  7449  001BF0  6EE1               	movwf	fsr1l,c
  7450  001BF2  51C0               	movf	(??_enleveEspaceAutour+5)& (0+255),w,b
  7451  001BF4  21C2               	addwfc	(??_enleveEspaceAutour+7)& (0+255),w,b
  7452  001BF6  6EE2               	movwf	fsr1h,c
  7453  001BF8  CFDF FFE7          	movff	indf2,indf1
  7454  001BFC                     
  7455                           ; BSR set to: 0
  7456                           ;main.c: 520: lcd_ecritChar(m_tabVue[y+j][x+i]);
  7457  001BFC  C0C7  F0BB         	movff	enleveEspaceAutour@i,??_enleveEspaceAutour
  7458  001C00  0100               	movlb	0	; force () banked
  7459  001C02  6BBC               	clrf	(??_enleveEspaceAutour+1)& (0+255),b
  7460  001C04  BFBB               	btfsc	??_enleveEspaceAutour& (0+255),7,b
  7461  001C06  07BC               	decf	(??_enleveEspaceAutour+1)& (0+255),f,b
  7462  001C08  0100               	movlb	0	; force () banked
  7463  001C0A  51C6               	movf	enleveEspaceAutour@j& (0+255),w,b
  7464  001C0C  0100               	movlb	0	; force () banked
  7465  001C0E  6FB4               	movwf	___wmul@multiplier& (0+255),b
  7466  001C10  6BB5               	clrf	(___wmul@multiplier+1)& (0+255),b
  7467  001C12  BFB4               	btfsc	___wmul@multiplier& (0+255),7,b
  7468  001C14  07B5               	decf	(___wmul@multiplier+1)& (0+255),f,b
  7469  001C16  0E00               	movlw	0
  7470  001C18  0100               	movlb	0	; force () banked
  7471  001C1A  6FB7               	movwf	(___wmul@multiplicand+1)& (0+255),b
  7472  001C1C  0E15               	movlw	21
  7473  001C1E  6FB6               	movwf	___wmul@multiplicand& (0+255),b
  7474  001C20  EC0D  F01A         	call	___wmul	;wreg free
  7475  001C24  0100               	movlb	0	; force () banked
  7476  001C26  51BA               	movf	enleveEspaceAutour@y& (0+255),w,b
  7477  001C28  0D15               	mullw	21
  7478  001C2A  0E9C               	movlw	low _m_tabVue
  7479  001C2C  0100               	movlb	0	; force () banked
  7480  001C2E  6FBD               	movwf	(??_enleveEspaceAutour+2)& (0+255),b
  7481  001C30  0E01               	movlw	high _m_tabVue
  7482  001C32  6FBE               	movwf	(??_enleveEspaceAutour+3)& (0+255),b
  7483  001C34  50F3               	movf	243,w,c
  7484  001C36  27BD               	addwf	(??_enleveEspaceAutour+2)& (0+255),f,b
  7485  001C38  50F4               	movf	244,w,c
  7486  001C3A  23BE               	addwfc	(??_enleveEspaceAutour+3)& (0+255),f,b
  7487  001C3C  0100               	movlb	0	; force () banked
  7488  001C3E  51B4               	movf	?___wmul& (0+255),w,b
  7489  001C40  0100               	movlb	0	; force () banked
  7490  001C42  27BD               	addwf	(??_enleveEspaceAutour+2)& (0+255),f,b
  7491  001C44  0100               	movlb	0	; force () banked
  7492  001C46  51B5               	movf	(?___wmul+1)& (0+255),w,b
  7493  001C48  0100               	movlb	0	; force () banked
  7494  001C4A  23BE               	addwfc	(??_enleveEspaceAutour+3)& (0+255),f,b
  7495  001C4C  0100               	movlb	0	; force () banked
  7496  001C4E  51C5               	movf	enleveEspaceAutour@x& (0+255),w,b
  7497  001C50  0100               	movlb	0	; force () banked
  7498  001C52  27BD               	addwf	(??_enleveEspaceAutour+2)& (0+255),f,b
  7499  001C54  0E00               	movlw	0
  7500  001C56  23BE               	addwfc	(??_enleveEspaceAutour+3)& (0+255),f,b
  7501  001C58  51BB               	movf	??_enleveEspaceAutour& (0+255),w,b
  7502  001C5A  25BD               	addwf	(??_enleveEspaceAutour+2)& (0+255),w,b
  7503  001C5C  6ED9               	movwf	fsr2l,c
  7504  001C5E  51BC               	movf	(??_enleveEspaceAutour+1)& (0+255),w,b
  7505  001C60  21BE               	addwfc	(??_enleveEspaceAutour+3)& (0+255),w,b
  7506  001C62  6EDA               	movwf	fsr2h,c
  7507  001C64  50DF               	movf	indf2,w,c
  7508  001C66  EC44  F019         	call	_lcd_ecritChar
  7509  001C6A                     l2481:
  7510                           
  7511                           ;main.c: 521: };main.c: 522: if(x==19&&i==0)
  7512  001C6A  0E13               	movlw	19
  7513  001C6C  0100               	movlb	0	; force () banked
  7514  001C6E  19C5               	xorwf	enleveEspaceAutour@x& (0+255),w,b
  7515  001C70  A4D8               	btfss	status,2,c
  7516  001C72  EF3D  F00E         	goto	u2121
  7517  001C76  EF3F  F00E         	goto	u2120
  7518  001C7A                     u2121:
  7519  001C7A  EF4B  F00E         	goto	l2487
  7520  001C7E                     u2120:
  7521  001C7E                     
  7522                           ; BSR set to: 0
  7523  001C7E  0100               	movlb	0	; force () banked
  7524  001C80  51C7               	movf	enleveEspaceAutour@i& (0+255),w,b
  7525  001C82  A4D8               	btfss	status,2,c
  7526  001C84  EF46  F00E         	goto	u2131
  7527  001C88  EF48  F00E         	goto	u2130
  7528  001C8C                     u2131:
  7529  001C8C  EF4B  F00E         	goto	l2487
  7530  001C90                     u2130:
  7531  001C90                     
  7532                           ; BSR set to: 0
  7533                           ;main.c: 523: i=1;
  7534  001C90  0E01               	movlw	1
  7535  001C92  0100               	movlb	0	; force () banked
  7536  001C94  6FC7               	movwf	enleveEspaceAutour@i& (0+255),b
  7537  001C96                     l2487:
  7538                           
  7539                           ; BSR set to: 0
  7540  001C96  0100               	movlb	0	; force () banked
  7541  001C98  2BC7               	incf	enleveEspaceAutour@i& (0+255),f,b
  7542  001C9A                     
  7543                           ; BSR set to: 0
  7544  001C9A  0100               	movlb	0	; force () banked
  7545  001C9C  51C7               	movf	enleveEspaceAutour@i& (0+255),w,b
  7546  001C9E  0A80               	xorlw	128
  7547  001CA0  0F7E               	addlw	-130
  7548  001CA2  A0D8               	btfss	status,0,c
  7549  001CA4  EF56  F00E         	goto	u2141
  7550  001CA8  EF58  F00E         	goto	u2140
  7551  001CAC                     u2141:
  7552  001CAC  EFF5  F00C         	goto	l2465
  7553  001CB0                     u2140:
  7554  001CB0                     l2491:
  7555                           
  7556                           ; BSR set to: 0
  7557                           ;main.c: 525: };main.c: 526: if(y==3&&j==0)
  7558  001CB0  0E03               	movlw	3
  7559  001CB2  0100               	movlb	0	; force () banked
  7560  001CB4  19BA               	xorwf	enleveEspaceAutour@y& (0+255),w,b
  7561  001CB6  A4D8               	btfss	status,2,c
  7562  001CB8  EF60  F00E         	goto	u2151
  7563  001CBC  EF62  F00E         	goto	u2150
  7564  001CC0                     u2151:
  7565  001CC0  EF6E  F00E         	goto	l2497
  7566  001CC4                     u2150:
  7567  001CC4                     
  7568                           ; BSR set to: 0
  7569  001CC4  0100               	movlb	0	; force () banked
  7570  001CC6  51C6               	movf	enleveEspaceAutour@j& (0+255),w,b
  7571  001CC8  A4D8               	btfss	status,2,c
  7572  001CCA  EF69  F00E         	goto	u2161
  7573  001CCE  EF6B  F00E         	goto	u2160
  7574  001CD2                     u2161:
  7575  001CD2  EF6E  F00E         	goto	l2497
  7576  001CD6                     u2160:
  7577  001CD6                     
  7578                           ; BSR set to: 0
  7579                           ;main.c: 527: j=1;
  7580  001CD6  0E01               	movlw	1
  7581  001CD8  0100               	movlb	0	; force () banked
  7582  001CDA  6FC6               	movwf	enleveEspaceAutour@j& (0+255),b
  7583  001CDC                     l2497:
  7584                           
  7585                           ; BSR set to: 0
  7586  001CDC  0100               	movlb	0	; force () banked
  7587  001CDE  2BC6               	incf	enleveEspaceAutour@j& (0+255),f,b
  7588  001CE0                     
  7589                           ; BSR set to: 0
  7590  001CE0  0100               	movlb	0	; force () banked
  7591  001CE2  51C6               	movf	enleveEspaceAutour@j& (0+255),w,b
  7592  001CE4  0A80               	xorlw	128
  7593  001CE6  0F7E               	addlw	-130
  7594  001CE8  A0D8               	btfss	status,0,c
  7595  001CEA  EF79  F00E         	goto	u2171
  7596  001CEE  EF7B  F00E         	goto	u2170
  7597  001CF2                     u2171:
  7598  001CF2  EFD1  F00C         	goto	l2453
  7599  001CF6                     u2170:
  7600  001CF6                     l247:
  7601                           
  7602                           ; BSR set to: 0
  7603  001CF6  0012               	return		;funcret
  7604  001CF8                     __end_of_enleveEspaceAutour:
  7605                           	opt callstack 0
  7606                           
  7607 ;; *************** function ___wmul *****************
  7608 ;; Defined at:
  7609 ;;		line 15 in file "C:\Program Files (x86)\Microchip\xc8\v2.10\pic\sources\c90\common\Umul16.c"
  7610 ;; Parameters:    Size  Location     Type
  7611 ;;  multiplier      2    0[BANK0 ] unsigned int 
  7612 ;;  multiplicand    2    2[BANK0 ] unsigned int 
  7613 ;; Auto vars:     Size  Location     Type
  7614 ;;  product         2    4[BANK0 ] unsigned int 
  7615 ;; Return value:  Size  Location     Type
  7616 ;;                  2    0[BANK0 ] unsigned int 
  7617 ;; Registers used:
  7618 ;;		wreg, status,2, status,0, prodl, prodh
  7619 ;; Tracked objects:
  7620 ;;		On entry : 0/0
  7621 ;;		On exit  : 0/0
  7622 ;;		Unchanged: 0/0
  7623 ;; Data sizes:     COMRAM   BANK0   BANK1   BANK2   BANK3   BANK4   BANK5
  7624 ;;      Params:         0       4       0       0       0       0       0
  7625 ;;      Locals:         0       2       0       0       0       0       0
  7626 ;;      Temps:          0       0       0       0       0       0       0
  7627 ;;      Totals:         0       6       0       0       0       0       0
  7628 ;;Total ram usage:        6 bytes
  7629 ;; Hardware stack levels used:    1
  7630 ;; This function calls:
  7631 ;;		Nothing
  7632 ;; This function is called by:
  7633 ;;		_calculToucheCombien
  7634 ;;		_verifieToucheEspace
  7635 ;;		_enleveTuilesAutour
  7636 ;;		_enleveEspaceAutour
  7637 ;; This function uses a non-reentrant model
  7638 ;;
  7639                           
  7640                           	psect	text28
  7641  00341A                     __ptext28:
  7642                           	opt callstack 0
  7643  00341A                     ___wmul:
  7644                           	opt callstack 28
  7645  00341A  0100               	movlb	0	; () banked
  7646  00341C  51B4               	movf	___wmul@multiplier& (0+255),w,b
  7647  00341E  03B6               	mulwf	___wmul@multiplicand& (0+255),b
  7648  003420  CFF3 F0B8          	movff	prodl,___wmul@product
  7649  003424  CFF4 F0B9          	movff	prodh,___wmul@product+1
  7650  003428  51B4               	movf	___wmul@multiplier& (0+255),w,b
  7651  00342A  03B7               	mulwf	(___wmul@multiplicand+1)& (0+255),b
  7652  00342C  50F3               	movf	243,w,c
  7653  00342E  27B9               	addwf	(___wmul@product+1)& (0+255),f,b
  7654  003430  51B5               	movf	(___wmul@multiplier+1)& (0+255),w,b
  7655  003432  03B6               	mulwf	___wmul@multiplicand& (0+255),b
  7656  003434  50F3               	movf	243,w,c
  7657  003436  27B9               	addwf	(___wmul@product+1)& (0+255),f,b
  7658  003438                     
  7659                           ; BSR set to: 0
  7660  003438  C0B8  F0B4         	movff	___wmul@product,?___wmul
  7661  00343C  C0B9  F0B5         	movff	___wmul@product+1,?___wmul+1
  7662  003440                     
  7663                           ; BSR set to: 0
  7664  003440  0012               	return		;funcret
  7665  003442                     __end_of___wmul:
  7666                           	opt callstack 0
  7667                           
  7668 ;; *************** function ___awmod *****************
  7669 ;; Defined at:
  7670 ;;		line 7 in file "C:\Program Files (x86)\Microchip\xc8\v2.10\pic\sources\c90\common\awmod.c"
  7671 ;; Parameters:    Size  Location     Type
  7672 ;;  dividend        2   14[BANK0 ] int 
  7673 ;;  divisor         2   16[BANK0 ] int 
  7674 ;; Auto vars:     Size  Location     Type
  7675 ;;  sign            1   19[BANK0 ] unsigned char 
  7676 ;;  counter         1   18[BANK0 ] unsigned char 
  7677 ;; Return value:  Size  Location     Type
  7678 ;;                  2   14[BANK0 ] int 
  7679 ;; Registers used:
  7680 ;;		wreg, status,2, status,0
  7681 ;; Tracked objects:
  7682 ;;		On entry : 0/0
  7683 ;;		On exit  : 0/0
  7684 ;;		Unchanged: 0/0
  7685 ;; Data sizes:     COMRAM   BANK0   BANK1   BANK2   BANK3   BANK4   BANK5
  7686 ;;      Params:         0       4       0       0       0       0       0
  7687 ;;      Locals:         0       2       0       0       0       0       0
  7688 ;;      Temps:          0       0       0       0       0       0       0
  7689 ;;      Totals:         0       6       0       0       0       0       0
  7690 ;;Total ram usage:        6 bytes
  7691 ;; Hardware stack levels used:    1
  7692 ;; This function calls:
  7693 ;;		Nothing
  7694 ;; This function is called by:
  7695 ;;		_rempliMines
  7696 ;;		_openSpaces
  7697 ;; This function uses a non-reentrant model
  7698 ;;
  7699                           
  7700                           	psect	text29
  7701  002C6A                     __ptext29:
  7702                           	opt callstack 0
  7703  002C6A                     ___awmod:
  7704                           	opt callstack 29
  7705  002C6A  0E00               	movlw	0
  7706  002C6C  0100               	movlb	0	; () banked
  7707  002C6E  6FC7               	movwf	___awmod@sign& (0+255),b
  7708  002C70                     
  7709                           ; BSR set to: 0
  7710  002C70  BFC3               	btfsc	(___awmod@dividend+1)& (0+255),7,b
  7711  002C72  EF3F  F016         	goto	u2240
  7712  002C76  EF3D  F016         	goto	u2241
  7713  002C7A                     u2241:
  7714  002C7A  EF45  F016         	goto	l2553
  7715  002C7E                     u2240:
  7716  002C7E                     
  7717                           ; BSR set to: 0
  7718  002C7E  6DC2               	negf	___awmod@dividend& (0+255),b
  7719  002C80  1FC3               	comf	(___awmod@dividend+1)& (0+255),f,b
  7720  002C82  B0D8               	btfsc	status,0,c
  7721  002C84  2BC3               	incf	(___awmod@dividend+1)& (0+255),f,b
  7722  002C86                     
  7723                           ; BSR set to: 0
  7724  002C86  0E01               	movlw	1
  7725  002C88  6FC7               	movwf	___awmod@sign& (0+255),b
  7726  002C8A                     l2553:
  7727                           
  7728                           ; BSR set to: 0
  7729  002C8A  BFC5               	btfsc	(___awmod@divisor+1)& (0+255),7,b
  7730  002C8C  EF4C  F016         	goto	u2250
  7731  002C90  EF4A  F016         	goto	u2251
  7732  002C94                     u2251:
  7733  002C94  EF50  F016         	goto	l2557
  7734  002C98                     u2250:
  7735  002C98                     
  7736                           ; BSR set to: 0
  7737  002C98  6DC4               	negf	___awmod@divisor& (0+255),b
  7738  002C9A  1FC5               	comf	(___awmod@divisor+1)& (0+255),f,b
  7739  002C9C  B0D8               	btfsc	status,0,c
  7740  002C9E  2BC5               	incf	(___awmod@divisor+1)& (0+255),f,b
  7741  002CA0                     l2557:
  7742                           
  7743                           ; BSR set to: 0
  7744  002CA0  51C4               	movf	___awmod@divisor& (0+255),w,b
  7745  002CA2  11C5               	iorwf	(___awmod@divisor+1)& (0+255),w,b
  7746  002CA4  B4D8               	btfsc	status,2,c
  7747  002CA6  EF57  F016         	goto	u2261
  7748  002CAA  EF59  F016         	goto	u2260
  7749  002CAE                     u2261:
  7750  002CAE  EF7D  F016         	goto	l2573
  7751  002CB2                     u2260:
  7752  002CB2                     
  7753                           ; BSR set to: 0
  7754  002CB2  0E01               	movlw	1
  7755  002CB4  6FC6               	movwf	___awmod@counter& (0+255),b
  7756  002CB6  EF61  F016         	goto	l2563
  7757  002CBA                     l2561:
  7758                           
  7759                           ; BSR set to: 0
  7760  002CBA  90D8               	bcf	status,0,c
  7761  002CBC  37C4               	rlcf	___awmod@divisor& (0+255),f,b
  7762  002CBE  37C5               	rlcf	(___awmod@divisor+1)& (0+255),f,b
  7763  002CC0  2BC6               	incf	___awmod@counter& (0+255),f,b
  7764  002CC2                     l2563:
  7765                           
  7766                           ; BSR set to: 0
  7767  002CC2  AFC5               	btfss	(___awmod@divisor+1)& (0+255),7,b
  7768  002CC4  EF66  F016         	goto	u2271
  7769  002CC8  EF68  F016         	goto	u2270
  7770  002CCC                     u2271:
  7771  002CCC  EF5D  F016         	goto	l2561
  7772  002CD0                     u2270:
  7773  002CD0                     l2565:
  7774                           
  7775                           ; BSR set to: 0
  7776  002CD0  51C4               	movf	___awmod@divisor& (0+255),w,b
  7777  002CD2  5DC2               	subwf	___awmod@dividend& (0+255),w,b
  7778  002CD4  51C5               	movf	(___awmod@divisor+1)& (0+255),w,b
  7779  002CD6  59C3               	subwfb	(___awmod@dividend+1)& (0+255),w,b
  7780  002CD8  A0D8               	btfss	status,0,c
  7781  002CDA  EF71  F016         	goto	u2281
  7782  002CDE  EF73  F016         	goto	u2280
  7783  002CE2                     u2281:
  7784  002CE2  EF77  F016         	goto	l2569
  7785  002CE6                     u2280:
  7786  002CE6                     
  7787                           ; BSR set to: 0
  7788  002CE6  51C4               	movf	___awmod@divisor& (0+255),w,b
  7789  002CE8  5FC2               	subwf	___awmod@dividend& (0+255),f,b
  7790  002CEA  51C5               	movf	(___awmod@divisor+1)& (0+255),w,b
  7791  002CEC  5BC3               	subwfb	(___awmod@dividend+1)& (0+255),f,b
  7792  002CEE                     l2569:
  7793                           
  7794                           ; BSR set to: 0
  7795  002CEE  90D8               	bcf	status,0,c
  7796  002CF0  33C5               	rrcf	(___awmod@divisor+1)& (0+255),f,b
  7797  002CF2  33C4               	rrcf	___awmod@divisor& (0+255),f,b
  7798  002CF4                     
  7799                           ; BSR set to: 0
  7800  002CF4  2FC6               	decfsz	___awmod@counter& (0+255),f,b
  7801  002CF6  EF68  F016         	goto	l2565
  7802  002CFA                     l2573:
  7803                           
  7804                           ; BSR set to: 0
  7805  002CFA  51C7               	movf	___awmod@sign& (0+255),w,b
  7806  002CFC  B4D8               	btfsc	status,2,c
  7807  002CFE  EF83  F016         	goto	u2291
  7808  002D02  EF85  F016         	goto	u2290
  7809  002D06                     u2291:
  7810  002D06  EF89  F016         	goto	l2577
  7811  002D0A                     u2290:
  7812  002D0A                     
  7813                           ; BSR set to: 0
  7814  002D0A  6DC2               	negf	___awmod@dividend& (0+255),b
  7815  002D0C  1FC3               	comf	(___awmod@dividend+1)& (0+255),f,b
  7816  002D0E  B0D8               	btfsc	status,0,c
  7817  002D10  2BC3               	incf	(___awmod@dividend+1)& (0+255),f,b
  7818  002D12                     l2577:
  7819                           
  7820                           ; BSR set to: 0
  7821  002D12  C0C2  F0C2         	movff	___awmod@dividend,?___awmod
  7822  002D16  C0C3  F0C3         	movff	___awmod@dividend+1,?___awmod+1
  7823  002D1A                     
  7824                           ; BSR set to: 0
  7825  002D1A  0012               	return		;funcret
  7826  002D1C                     __end_of___awmod:
  7827                           	opt callstack 0
  7828                           
  7829 ;; *************** function ___awdiv *****************
  7830 ;; Defined at:
  7831 ;;		line 7 in file "C:\Program Files (x86)\Microchip\xc8\v2.10\pic\sources\c90\common\awdiv.c"
  7832 ;; Parameters:    Size  Location     Type
  7833 ;;  dividend        2    0[BANK0 ] int 
  7834 ;;  divisor         2    2[BANK0 ] int 
  7835 ;; Auto vars:     Size  Location     Type
  7836 ;;  quotient        2    6[BANK0 ] int 
  7837 ;;  sign            1    5[BANK0 ] unsigned char 
  7838 ;;  counter         1    4[BANK0 ] unsigned char 
  7839 ;; Return value:  Size  Location     Type
  7840 ;;                  2    0[BANK0 ] int 
  7841 ;; Registers used:
  7842 ;;		wreg, status,2, status,0
  7843 ;; Tracked objects:
  7844 ;;		On entry : 0/0
  7845 ;;		On exit  : 0/0
  7846 ;;		Unchanged: 0/0
  7847 ;; Data sizes:     COMRAM   BANK0   BANK1   BANK2   BANK3   BANK4   BANK5
  7848 ;;      Params:         0       4       0       0       0       0       0
  7849 ;;      Locals:         0       4       0       0       0       0       0
  7850 ;;      Temps:          0       0       0       0       0       0       0
  7851 ;;      Totals:         0       8       0       0       0       0       0
  7852 ;;Total ram usage:        8 bytes
  7853 ;; Hardware stack levels used:    1
  7854 ;; This function calls:
  7855 ;;		Nothing
  7856 ;; This function is called by:
  7857 ;;		_openSpaces
  7858 ;; This function uses a non-reentrant model
  7859 ;;
  7860                           
  7861                           	psect	text30
  7862  002A2E                     __ptext30:
  7863                           	opt callstack 0
  7864  002A2E                     ___awdiv:
  7865                           	opt callstack 27
  7866  002A2E  0E00               	movlw	0
  7867  002A30  0100               	movlb	0	; () banked
  7868  002A32  6FB9               	movwf	___awdiv@sign& (0+255),b
  7869  002A34                     
  7870                           ; BSR set to: 0
  7871  002A34  BFB7               	btfsc	(___awdiv@divisor+1)& (0+255),7,b
  7872  002A36  EF21  F015         	goto	u2180
  7873  002A3A  EF1F  F015         	goto	u2181
  7874  002A3E                     u2181:
  7875  002A3E  EF27  F015         	goto	l2509
  7876  002A42                     u2180:
  7877  002A42                     
  7878                           ; BSR set to: 0
  7879  002A42  6DB6               	negf	___awdiv@divisor& (0+255),b
  7880  002A44  1FB7               	comf	(___awdiv@divisor+1)& (0+255),f,b
  7881  002A46  B0D8               	btfsc	status,0,c
  7882  002A48  2BB7               	incf	(___awdiv@divisor+1)& (0+255),f,b
  7883  002A4A                     
  7884                           ; BSR set to: 0
  7885  002A4A  0E01               	movlw	1
  7886  002A4C  6FB9               	movwf	___awdiv@sign& (0+255),b
  7887  002A4E                     l2509:
  7888                           
  7889                           ; BSR set to: 0
  7890  002A4E  BFB5               	btfsc	(___awdiv@dividend+1)& (0+255),7,b
  7891  002A50  EF2E  F015         	goto	u2190
  7892  002A54  EF2C  F015         	goto	u2191
  7893  002A58                     u2191:
  7894  002A58  EF34  F015         	goto	l2515
  7895  002A5C                     u2190:
  7896  002A5C                     
  7897                           ; BSR set to: 0
  7898  002A5C  6DB4               	negf	___awdiv@dividend& (0+255),b
  7899  002A5E  1FB5               	comf	(___awdiv@dividend+1)& (0+255),f,b
  7900  002A60  B0D8               	btfsc	status,0,c
  7901  002A62  2BB5               	incf	(___awdiv@dividend+1)& (0+255),f,b
  7902  002A64                     
  7903                           ; BSR set to: 0
  7904  002A64  0E01               	movlw	1
  7905  002A66  1BB9               	xorwf	___awdiv@sign& (0+255),f,b
  7906  002A68                     l2515:
  7907                           
  7908                           ; BSR set to: 0
  7909  002A68  0E00               	movlw	0
  7910  002A6A  6FBB               	movwf	(___awdiv@quotient+1)& (0+255),b
  7911  002A6C  0E00               	movlw	0
  7912  002A6E  6FBA               	movwf	___awdiv@quotient& (0+255),b
  7913  002A70                     
  7914                           ; BSR set to: 0
  7915  002A70  51B6               	movf	___awdiv@divisor& (0+255),w,b
  7916  002A72  11B7               	iorwf	(___awdiv@divisor+1)& (0+255),w,b
  7917  002A74  B4D8               	btfsc	status,2,c
  7918  002A76  EF3F  F015         	goto	u2201
  7919  002A7A  EF41  F015         	goto	u2200
  7920  002A7E                     u2201:
  7921  002A7E  EF69  F015         	goto	l2537
  7922  002A82                     u2200:
  7923  002A82                     
  7924                           ; BSR set to: 0
  7925  002A82  0E01               	movlw	1
  7926  002A84  6FB8               	movwf	___awdiv@counter& (0+255),b
  7927  002A86  EF49  F015         	goto	l2523
  7928  002A8A                     l2521:
  7929                           
  7930                           ; BSR set to: 0
  7931  002A8A  90D8               	bcf	status,0,c
  7932  002A8C  37B6               	rlcf	___awdiv@divisor& (0+255),f,b
  7933  002A8E  37B7               	rlcf	(___awdiv@divisor+1)& (0+255),f,b
  7934  002A90  2BB8               	incf	___awdiv@counter& (0+255),f,b
  7935  002A92                     l2523:
  7936                           
  7937                           ; BSR set to: 0
  7938  002A92  AFB7               	btfss	(___awdiv@divisor+1)& (0+255),7,b
  7939  002A94  EF4E  F015         	goto	u2211
  7940  002A98  EF50  F015         	goto	u2210
  7941  002A9C                     u2211:
  7942  002A9C  EF45  F015         	goto	l2521
  7943  002AA0                     u2210:
  7944  002AA0                     l2525:
  7945                           
  7946                           ; BSR set to: 0
  7947  002AA0  90D8               	bcf	status,0,c
  7948  002AA2  37BA               	rlcf	___awdiv@quotient& (0+255),f,b
  7949  002AA4  37BB               	rlcf	(___awdiv@quotient+1)& (0+255),f,b
  7950  002AA6                     
  7951                           ; BSR set to: 0
  7952  002AA6  51B6               	movf	___awdiv@divisor& (0+255),w,b
  7953  002AA8  5DB4               	subwf	___awdiv@dividend& (0+255),w,b
  7954  002AAA  51B7               	movf	(___awdiv@divisor+1)& (0+255),w,b
  7955  002AAC  59B5               	subwfb	(___awdiv@dividend+1)& (0+255),w,b
  7956  002AAE  A0D8               	btfss	status,0,c
  7957  002AB0  EF5C  F015         	goto	u2221
  7958  002AB4  EF5E  F015         	goto	u2220
  7959  002AB8                     u2221:
  7960  002AB8  EF63  F015         	goto	l2533
  7961  002ABC                     u2220:
  7962  002ABC                     
  7963                           ; BSR set to: 0
  7964  002ABC  51B6               	movf	___awdiv@divisor& (0+255),w,b
  7965  002ABE  5FB4               	subwf	___awdiv@dividend& (0+255),f,b
  7966  002AC0  51B7               	movf	(___awdiv@divisor+1)& (0+255),w,b
  7967  002AC2  5BB5               	subwfb	(___awdiv@dividend+1)& (0+255),f,b
  7968  002AC4                     
  7969                           ; BSR set to: 0
  7970  002AC4  81BA               	bsf	___awdiv@quotient& (0+255),0,b
  7971  002AC6                     l2533:
  7972                           
  7973                           ; BSR set to: 0
  7974  002AC6  90D8               	bcf	status,0,c
  7975  002AC8  33B7               	rrcf	(___awdiv@divisor+1)& (0+255),f,b
  7976  002ACA  33B6               	rrcf	___awdiv@divisor& (0+255),f,b
  7977  002ACC                     
  7978                           ; BSR set to: 0
  7979  002ACC  2FB8               	decfsz	___awdiv@counter& (0+255),f,b
  7980  002ACE  EF50  F015         	goto	l2525
  7981  002AD2                     l2537:
  7982                           
  7983                           ; BSR set to: 0
  7984  002AD2  51B9               	movf	___awdiv@sign& (0+255),w,b
  7985  002AD4  B4D8               	btfsc	status,2,c
  7986  002AD6  EF6F  F015         	goto	u2231
  7987  002ADA  EF71  F015         	goto	u2230
  7988  002ADE                     u2231:
  7989  002ADE  EF75  F015         	goto	l2541
  7990  002AE2                     u2230:
  7991  002AE2                     
  7992                           ; BSR set to: 0
  7993  002AE2  6DBA               	negf	___awdiv@quotient& (0+255),b
  7994  002AE4  1FBB               	comf	(___awdiv@quotient+1)& (0+255),f,b
  7995  002AE6  B0D8               	btfsc	status,0,c
  7996  002AE8  2BBB               	incf	(___awdiv@quotient+1)& (0+255),f,b
  7997  002AEA                     l2541:
  7998                           
  7999                           ; BSR set to: 0
  8000  002AEA  C0BA  F0B4         	movff	___awdiv@quotient,?___awdiv
  8001  002AEE  C0BB  F0B5         	movff	___awdiv@quotient+1,?___awdiv+1
  8002  002AF2                     
  8003                           ; BSR set to: 0
  8004  002AF2  0012               	return		;funcret
  8005  002AF4                     __end_of___awdiv:
  8006                           	opt callstack 0
  8007                           
  8008 ;; *************** function _afficheTabVue *****************
  8009 ;; Defined at:
  8010 ;;		line 171 in file "main.c"
  8011 ;; Parameters:    Size  Location     Type
  8012 ;;		None
  8013 ;; Auto vars:     Size  Location     Type
  8014 ;;  i               1   16[BANK0 ] unsigned char 
  8015 ;; Return value:  Size  Location     Type
  8016 ;;                  1    wreg      void 
  8017 ;; Registers used:
  8018 ;;		wreg, fsr1l, fsr1h, status,2, status,0, tblptrl, tblptrh, tblptru, prodl, prodh, cstack
  8019 ;; Tracked objects:
  8020 ;;		On entry : 0/0
  8021 ;;		On exit  : 0/0
  8022 ;;		Unchanged: 0/0
  8023 ;; Data sizes:     COMRAM   BANK0   BANK1   BANK2   BANK3   BANK4   BANK5
  8024 ;;      Params:         0       0       0       0       0       0       0
  8025 ;;      Locals:         0       1       0       0       0       0       0
  8026 ;;      Temps:          0       2       0       0       0       0       0
  8027 ;;      Totals:         0       3       0       0       0       0       0
  8028 ;;Total ram usage:        3 bytes
  8029 ;; Hardware stack levels used:    1
  8030 ;; Hardware stack levels required when called:    5
  8031 ;; This function calls:
  8032 ;;		_lcd_gotoXY
  8033 ;;		_lcd_putMessage
  8034 ;; This function is called by:
  8035 ;;		_main
  8036 ;; This function uses a non-reentrant model
  8037 ;;
  8038                           
  8039                           	psect	text31
  8040  002F4C                     __ptext31:
  8041                           	opt callstack 0
  8042  002F4C                     _afficheTabVue:
  8043                           	opt callstack 25
  8044  002F4C                     
  8045                           ;main.c: 173: for(unsigned char i =0; i<4;++i)
  8046  002F4C  0E00               	movlw	0
  8047  002F4E  0100               	movlb	0	; force () banked
  8048  002F50  6FC4               	movwf	afficheTabVue@i& (0+255),b
  8049  002F52                     
  8050                           ; BSR set to: 0
  8051  002F52  0E03               	movlw	3
  8052  002F54  0100               	movlb	0	; force () banked
  8053  002F56  65C4               	cpfsgt	afficheTabVue@i& (0+255),b
  8054  002F58  EFB0  F017         	goto	u3011
  8055  002F5C  EFB2  F017         	goto	u3010
  8056  002F60                     u3011:
  8057  002F60  EFB4  F017         	goto	l3017
  8058  002F64                     u3010:
  8059  002F64  EFDC  F017         	goto	l123
  8060  002F68                     l3017:
  8061                           
  8062                           ; BSR set to: 0
  8063                           ;main.c: 174: {;main.c: 175: lcd_gotoXY(1,i+1);
  8064  002F68  0100               	movlb	0	; force () banked
  8065  002F6A  29C4               	incf	afficheTabVue@i& (0+255),w,b
  8066  002F6C  0100               	movlb	0	; force () banked
  8067  002F6E  6FB7               	movwf	lcd_gotoXY@y& (0+255),b
  8068  002F70  0E01               	movlw	1
  8069  002F72  EC6D  F017         	call	_lcd_gotoXY
  8070  002F76                     
  8071                           ;main.c: 176: lcd_putMessage(m_tabVue[i]);
  8072  002F76  0100               	movlb	0	; force () banked
  8073  002F78  51C4               	movf	afficheTabVue@i& (0+255),w,b
  8074  002F7A  0D15               	mullw	21
  8075  002F7C  0E9C               	movlw	low _m_tabVue
  8076  002F7E  24F3               	addwf	243,w,c
  8077  002F80  0100               	movlb	0	; force () banked
  8078  002F82  6FC2               	movwf	??_afficheTabVue& (0+255),b
  8079  002F84  0E01               	movlw	high _m_tabVue
  8080  002F86  20F4               	addwfc	prodh,w,c
  8081  002F88  6FC3               	movwf	(??_afficheTabVue+1)& (0+255),b
  8082  002F8A  C0C2  F0B9         	movff	??_afficheTabVue,lcd_putMessage@chaine
  8083  002F8E  C0C3  F0BA         	movff	??_afficheTabVue+1,lcd_putMessage@chaine+1
  8084  002F92  0100               	movlb	0	; force () banked
  8085  002F94  51B9               	movf	lcd_putMessage@chaine& (0+255),w,b
  8086  002F96  11BA               	iorwf	(lcd_putMessage@chaine+1)& (0+255),w,b
  8087  002F98  A4D8               	btfss	status,2,c
  8088  002F9A  0E20               	movlw	32
  8089  002F9C  6FBB               	movwf	(lcd_putMessage@chaine+2)& (0+255),b
  8090  002F9E  ECDB  F015         	call	_lcd_putMessage	;wreg free
  8091  002FA2  0100               	movlb	0	; force () banked
  8092  002FA4  2BC4               	incf	afficheTabVue@i& (0+255),f,b
  8093  002FA6                     
  8094                           ; BSR set to: 0
  8095  002FA6  0E03               	movlw	3
  8096  002FA8  0100               	movlb	0	; force () banked
  8097  002FAA  65C4               	cpfsgt	afficheTabVue@i& (0+255),b
  8098  002FAC  EFDA  F017         	goto	u3021
  8099  002FB0  EFDC  F017         	goto	u3020
  8100  002FB4                     u3021:
  8101  002FB4  EFB4  F017         	goto	l3017
  8102  002FB8                     u3020:
  8103  002FB8                     l123:
  8104                           
  8105                           ; BSR set to: 0
  8106  002FB8  0012               	return		;funcret
  8107  002FBA                     __end_of_afficheTabVue:
  8108                           	opt callstack 0
  8109                           
  8110 ;; *************** function _afficheTabMines *****************
  8111 ;; Defined at:
  8112 ;;		line 181 in file "main.c"
  8113 ;; Parameters:    Size  Location     Type
  8114 ;;		None
  8115 ;; Auto vars:     Size  Location     Type
  8116 ;;  i               1   16[BANK0 ] unsigned char 
  8117 ;; Return value:  Size  Location     Type
  8118 ;;                  1    wreg      void 
  8119 ;; Registers used:
  8120 ;;		wreg, fsr1l, fsr1h, status,2, status,0, tblptrl, tblptrh, tblptru, prodl, prodh, cstack
  8121 ;; Tracked objects:
  8122 ;;		On entry : 0/0
  8123 ;;		On exit  : 0/0
  8124 ;;		Unchanged: 0/0
  8125 ;; Data sizes:     COMRAM   BANK0   BANK1   BANK2   BANK3   BANK4   BANK5
  8126 ;;      Params:         0       0       0       0       0       0       0
  8127 ;;      Locals:         0       1       0       0       0       0       0
  8128 ;;      Temps:          0       2       0       0       0       0       0
  8129 ;;      Totals:         0       3       0       0       0       0       0
  8130 ;;Total ram usage:        3 bytes
  8131 ;; Hardware stack levels used:    1
  8132 ;; Hardware stack levels required when called:    5
  8133 ;; This function calls:
  8134 ;;		_lcd_gotoXY
  8135 ;;		_lcd_putMessage
  8136 ;; This function is called by:
  8137 ;;		_main
  8138 ;; This function uses a non-reentrant model
  8139 ;;
  8140                           
  8141                           	psect	text32
  8142  002FBA                     __ptext32:
  8143                           	opt callstack 0
  8144  002FBA                     _afficheTabMines:
  8145                           	opt callstack 25
  8146  002FBA                     
  8147                           ;main.c: 183: for(unsigned char i =0; i<4;++i)
  8148  002FBA  0E00               	movlw	0
  8149  002FBC  0100               	movlb	0	; force () banked
  8150  002FBE  6FC4               	movwf	afficheTabMines@i& (0+255),b
  8151  002FC0                     
  8152                           ; BSR set to: 0
  8153  002FC0  0E03               	movlw	3
  8154  002FC2  0100               	movlb	0	; force () banked
  8155  002FC4  65C4               	cpfsgt	afficheTabMines@i& (0+255),b
  8156  002FC6  EFE7  F017         	goto	u3301
  8157  002FCA  EFE9  F017         	goto	u3300
  8158  002FCE                     u3301:
  8159  002FCE  EFEB  F017         	goto	l3143
  8160  002FD2                     u3300:
  8161  002FD2  EF13  F018         	goto	l128
  8162  002FD6                     l3143:
  8163                           
  8164                           ; BSR set to: 0
  8165                           ;main.c: 184: {;main.c: 185: lcd_gotoXY(1,i+1);
  8166  002FD6  0100               	movlb	0	; force () banked
  8167  002FD8  29C4               	incf	afficheTabMines@i& (0+255),w,b
  8168  002FDA  0100               	movlb	0	; force () banked
  8169  002FDC  6FB7               	movwf	lcd_gotoXY@y& (0+255),b
  8170  002FDE  0E01               	movlw	1
  8171  002FE0  EC6D  F017         	call	_lcd_gotoXY
  8172  002FE4                     
  8173                           ;main.c: 186: lcd_putMessage(m_tabMines[i]);
  8174  002FE4  0100               	movlb	0	; force () banked
  8175  002FE6  51C4               	movf	afficheTabMines@i& (0+255),w,b
  8176  002FE8  0D15               	mullw	21
  8177  002FEA  0E60               	movlw	low _m_tabMines
  8178  002FEC  24F3               	addwf	243,w,c
  8179  002FEE  0100               	movlb	0	; force () banked
  8180  002FF0  6FC2               	movwf	??_afficheTabMines& (0+255),b
  8181  002FF2  0E00               	movlw	high _m_tabMines
  8182  002FF4  20F4               	addwfc	prodh,w,c
  8183  002FF6  6FC3               	movwf	(??_afficheTabMines+1)& (0+255),b
  8184  002FF8  C0C2  F0B9         	movff	??_afficheTabMines,lcd_putMessage@chaine
  8185  002FFC  C0C3  F0BA         	movff	??_afficheTabMines+1,lcd_putMessage@chaine+1
  8186  003000  0100               	movlb	0	; force () banked
  8187  003002  51B9               	movf	lcd_putMessage@chaine& (0+255),w,b
  8188  003004  11BA               	iorwf	(lcd_putMessage@chaine+1)& (0+255),w,b
  8189  003006  A4D8               	btfss	status,2,c
  8190  003008  0E20               	movlw	32
  8191  00300A  6FBB               	movwf	(lcd_putMessage@chaine+2)& (0+255),b
  8192  00300C  ECDB  F015         	call	_lcd_putMessage	;wreg free
  8193  003010  0100               	movlb	0	; force () banked
  8194  003012  2BC4               	incf	afficheTabMines@i& (0+255),f,b
  8195  003014                     
  8196                           ; BSR set to: 0
  8197  003014  0E03               	movlw	3
  8198  003016  0100               	movlb	0	; force () banked
  8199  003018  65C4               	cpfsgt	afficheTabMines@i& (0+255),b
  8200  00301A  EF11  F018         	goto	u3311
  8201  00301E  EF13  F018         	goto	u3310
  8202  003022                     u3311:
  8203  003022  EFEB  F017         	goto	l3143
  8204  003026                     u3310:
  8205  003026                     l128:
  8206                           
  8207                           ; BSR set to: 0
  8208  003026  0012               	return		;funcret
  8209  003028                     __end_of_afficheTabMines:
  8210                           	opt callstack 0
  8211                           
  8212 ;; *************** function _lcd_putMessage *****************
  8213 ;; Defined at:
  8214 ;;		line 388 in file "Lcd4Lignes.c"
  8215 ;; Parameters:    Size  Location     Type
  8216 ;;  chaine          3    5[BANK0 ] PTR const unsigned char 
  8217 ;;		 -> STR_2(8), STR_1(9), m_tabMines(84), menuAccueil@menuMsgs(40), 
  8218 ;;		 -> m_tabVue(84), 
  8219 ;; Auto vars:     Size  Location     Type
  8220 ;;  j               1   13[BANK0 ] unsigned char 
  8221 ;; Return value:  Size  Location     Type
  8222 ;;                  1    wreg      void 
  8223 ;; Registers used:
  8224 ;;		wreg, fsr1l, fsr1h, status,2, status,0, tblptrl, tblptrh, tblptru, cstack
  8225 ;; Tracked objects:
  8226 ;;		On entry : 0/0
  8227 ;;		On exit  : 0/0
  8228 ;;		Unchanged: 0/0
  8229 ;; Data sizes:     COMRAM   BANK0   BANK1   BANK2   BANK3   BANK4   BANK5
  8230 ;;      Params:         0       3       0       0       0       0       0
  8231 ;;      Locals:         0       1       0       0       0       0       0
  8232 ;;      Temps:          0       5       0       0       0       0       0
  8233 ;;      Totals:         0       9       0       0       0       0       0
  8234 ;;Total ram usage:        9 bytes
  8235 ;; Hardware stack levels used:    1
  8236 ;; Hardware stack levels required when called:    4
  8237 ;; This function calls:
  8238 ;;		_lcd_ecritChar
  8239 ;; This function is called by:
  8240 ;;		_menuAccueil
  8241 ;;		_afficheTabVue
  8242 ;;		_afficheTabMines
  8243 ;;		_afficheGagne
  8244 ;; This function uses a non-reentrant model
  8245 ;;
  8246                           
  8247                           	psect	text33
  8248  002BB6                     __ptext33:
  8249                           	opt callstack 0
  8250  002BB6                     _lcd_putMessage:
  8251                           	opt callstack 25
  8252  002BB6                     
  8253                           ;Lcd4Lignes.c: 390: unsigned char j;;Lcd4Lignes.c: 392: for(j = 0; chaine[j] != 0; j++)
  8254  002BB6  0E00               	movlw	0
  8255  002BB8  0100               	movlb	0	; force () banked
  8256  002BBA  6FC1               	movwf	lcd_putMessage@j& (0+255),b
  8257  002BBC  EF08  F016         	goto	l2589
  8258  002BC0                     l2585:
  8259                           
  8260                           ;Lcd4Lignes.c: 393: lcd_ecritChar(chaine[j]);
  8261  002BC0  0100               	movlb	0	; force () banked
  8262  002BC2  51C1               	movf	lcd_putMessage@j& (0+255),w,b
  8263  002BC4  0100               	movlb	0	; force () banked
  8264  002BC6  6FBC               	movwf	??_lcd_putMessage& (0+255),b
  8265  002BC8  6BBD               	clrf	(??_lcd_putMessage+1)& (0+255),b
  8266  002BCA  51BC               	movf	??_lcd_putMessage& (0+255),w,b
  8267  002BCC  0100               	movlb	0	; force () banked
  8268  002BCE  25B9               	addwf	lcd_putMessage@chaine& (0+255),w,b
  8269  002BD0  0100               	movlb	0	; force () banked
  8270  002BD2  6FBE               	movwf	(??_lcd_putMessage+2)& (0+255),b
  8271  002BD4  51BD               	movf	(??_lcd_putMessage+1)& (0+255),w,b
  8272  002BD6  0100               	movlb	0	; force () banked
  8273  002BD8  21BA               	addwfc	(lcd_putMessage@chaine+1)& (0+255),w,b
  8274  002BDA  0100               	movlb	0	; force () banked
  8275  002BDC  6FBF               	movwf	(??_lcd_putMessage+3)& (0+255),b
  8276  002BDE  0E00               	movlw	0
  8277  002BE0  0100               	movlb	0	; force () banked
  8278  002BE2  21BB               	addwfc	(lcd_putMessage@chaine+2)& (0+255),w,b
  8279  002BE4  0100               	movlb	0	; force () banked
  8280  002BE6  6FC0               	movwf	(??_lcd_putMessage+4)& (0+255),b
  8281  002BE8  C0BE  FFF6         	movff	??_lcd_putMessage+2,tblptrl
  8282  002BEC  C0BF  FFF7         	movff	??_lcd_putMessage+3,tblptrh
  8283  002BF0  C0C0  FFF8         	movff	??_lcd_putMessage+4,tblptru
  8284  002BF4  BAF8               	btfsc	tblptru,5,c
  8285  002BF6  D003               	bra	u2307
  8286  002BF8  0008               	tblrd		*
  8287  002BFA  50F5               	movf	tablat,w,c
  8288  002BFC  D005               	bra	u2300
  8289  002BFE                     u2307:
  8290  002BFE  CFF6 FFE1          	movff	tblptrl,fsr1l
  8291  002C02  CFF7 FFE2          	movff	tblptrh,fsr1h
  8292  002C06  50E7               	movf	indf1,w,c
  8293  002C08                     u2300:
  8294  002C08  EC44  F019         	call	_lcd_ecritChar
  8295  002C0C  0100               	movlb	0	; force () banked
  8296  002C0E  2BC1               	incf	lcd_putMessage@j& (0+255),f,b
  8297  002C10                     l2589:
  8298                           
  8299                           ; BSR set to: 0
  8300  002C10  0100               	movlb	0	; force () banked
  8301  002C12  51C1               	movf	lcd_putMessage@j& (0+255),w,b
  8302  002C14  0100               	movlb	0	; force () banked
  8303  002C16  6FBC               	movwf	??_lcd_putMessage& (0+255),b
  8304  002C18  6BBD               	clrf	(??_lcd_putMessage+1)& (0+255),b
  8305  002C1A  51BC               	movf	??_lcd_putMessage& (0+255),w,b
  8306  002C1C  0100               	movlb	0	; force () banked
  8307  002C1E  25B9               	addwf	lcd_putMessage@chaine& (0+255),w,b
  8308  002C20  0100               	movlb	0	; force () banked
  8309  002C22  6FBE               	movwf	(??_lcd_putMessage+2)& (0+255),b
  8310  002C24  51BD               	movf	(??_lcd_putMessage+1)& (0+255),w,b
  8311  002C26  0100               	movlb	0	; force () banked
  8312  002C28  21BA               	addwfc	(lcd_putMessage@chaine+1)& (0+255),w,b
  8313  002C2A  0100               	movlb	0	; force () banked
  8314  002C2C  6FBF               	movwf	(??_lcd_putMessage+3)& (0+255),b
  8315  002C2E  0E00               	movlw	0
  8316  002C30  0100               	movlb	0	; force () banked
  8317  002C32  21BB               	addwfc	(lcd_putMessage@chaine+2)& (0+255),w,b
  8318  002C34  0100               	movlb	0	; force () banked
  8319  002C36  6FC0               	movwf	(??_lcd_putMessage+4)& (0+255),b
  8320  002C38  C0BE  FFF6         	movff	??_lcd_putMessage+2,tblptrl
  8321  002C3C  C0BF  FFF7         	movff	??_lcd_putMessage+3,tblptrh
  8322  002C40  C0C0  FFF8         	movff	??_lcd_putMessage+4,tblptru
  8323  002C44  BAF8               	btfsc	tblptru,5,c
  8324  002C46  D003               	bra	u2317
  8325  002C48  0008               	tblrd		*
  8326  002C4A  50F5               	movf	tablat,w,c
  8327  002C4C  D005               	bra	u2310
  8328  002C4E                     u2317:
  8329  002C4E  CFF6 FFE1          	movff	tblptrl,fsr1l
  8330  002C52  CFF7 FFE2          	movff	tblptrh,fsr1h
  8331  002C56  50E7               	movf	indf1,w,c
  8332  002C58                     u2310:
  8333  002C58  0900               	iorlw	0
  8334  002C5A  A4D8               	btfss	status,2,c
  8335  002C5C  EF32  F016         	goto	u2321
  8336  002C60  EF34  F016         	goto	u2320
  8337  002C64                     u2321:
  8338  002C64  EFE0  F015         	goto	l2585
  8339  002C68                     u2320:
  8340  002C68  0012               	return		;funcret
  8341  002C6A                     __end_of_lcd_putMessage:
  8342                           	opt callstack 0
  8343                           
  8344 ;; *************** function _lcd_ecritChar *****************
  8345 ;; Defined at:
  8346 ;;		line 360 in file "Lcd4Lignes.c"
  8347 ;; Parameters:    Size  Location     Type
  8348 ;;  car             1    wreg     unsigned char 
  8349 ;; Auto vars:     Size  Location     Type
  8350 ;;  car             1    3[BANK0 ] unsigned char 
  8351 ;;  posRam          1    4[BANK0 ] unsigned char 
  8352 ;; Return value:  Size  Location     Type
  8353 ;;                  1    wreg      void 
  8354 ;; Registers used:
  8355 ;;		wreg, status,2, status,0, cstack
  8356 ;; Tracked objects:
  8357 ;;		On entry : 0/0
  8358 ;;		On exit  : 0/0
  8359 ;;		Unchanged: 0/0
  8360 ;; Data sizes:     COMRAM   BANK0   BANK1   BANK2   BANK3   BANK4   BANK5
  8361 ;;      Params:         0       0       0       0       0       0       0
  8362 ;;      Locals:         0       2       0       0       0       0       0
  8363 ;;      Temps:          0       0       0       0       0       0       0
  8364 ;;      Totals:         0       2       0       0       0       0       0
  8365 ;;Total ram usage:        2 bytes
  8366 ;; Hardware stack levels used:    1
  8367 ;; Hardware stack levels required when called:    3
  8368 ;; This function calls:
  8369 ;;		_lcd_wrCom
  8370 ;;		_lcd_wrData
  8371 ;; This function is called by:
  8372 ;;		_main
  8373 ;;		_openSpaces
  8374 ;;		_demine
  8375 ;;		_enleveTuilesAutour
  8376 ;;		_enleveEspaceAutour
  8377 ;;		_lcd_putMessage
  8378 ;; This function uses a non-reentrant model
  8379 ;;
  8380                           
  8381                           	psect	text34
  8382  003288                     __ptext34:
  8383                           	opt callstack 0
  8384  003288                     _lcd_ecritChar:
  8385                           	opt callstack 25
  8386                           
  8387                           ;incstack = 0
  8388                           ;lcd_ecritChar@car stored from wreg
  8389  003288  0100               	movlb	0	; force () banked
  8390  00328A  6FB7               	movwf	lcd_ecritChar@car& (0+255),b
  8391  00328C                     
  8392                           ;Lcd4Lignes.c: 362: unsigned char posRam;;Lcd4Lignes.c: 364: posRam = lcd_wrData(car);
  8393  00328C  0100               	movlb	0	; force () banked
  8394  00328E  51B7               	movf	lcd_ecritChar@car& (0+255),w,b
  8395  003290  ECC9  F019         	call	_lcd_wrData
  8396  003294  0100               	movlb	0	; force () banked
  8397  003296  6FB8               	movwf	lcd_ecritChar@posRam& (0+255),b
  8398                           
  8399                           ;Lcd4Lignes.c: 365: switch(posRam)
  8400  003298  EF5D  F019         	goto	l2331
  8401  00329C                     l2323:
  8402                           
  8403                           ; BSR set to: 0
  8404                           ;Lcd4Lignes.c: 368: lcd_wrCom(0xC0|0x80);
  8405  00329C  0EC0               	movlw	192
  8406  00329E  EC4A  F018         	call	_lcd_wrCom
  8407                           
  8408                           ;Lcd4Lignes.c: 369: break;
  8409  0032A2  EF6D  F019         	goto	l399
  8410  0032A6                     l2325:
  8411                           
  8412                           ; BSR set to: 0
  8413                           ;Lcd4Lignes.c: 371: lcd_wrCom(0x94|0x80);
  8414  0032A6  0E94               	movlw	148
  8415  0032A8  EC4A  F018         	call	_lcd_wrCom
  8416                           
  8417                           ;Lcd4Lignes.c: 372: break;
  8418  0032AC  EF6D  F019         	goto	l399
  8419  0032B0                     l2327:
  8420                           
  8421                           ; BSR set to: 0
  8422                           ;Lcd4Lignes.c: 374: lcd_wrCom(0xD4|0x80);
  8423  0032B0  0ED4               	movlw	212
  8424  0032B2  EC4A  F018         	call	_lcd_wrCom
  8425                           
  8426                           ;Lcd4Lignes.c: 375: break;
  8427  0032B6  EF6D  F019         	goto	l399
  8428  0032BA                     l2331:
  8429                           
  8430                           ; BSR set to: 0
  8431  0032BA  0100               	movlb	0	; force () banked
  8432  0032BC  51B8               	movf	lcd_ecritChar@posRam& (0+255),w,b
  8433                           
  8434                           ; Switch size 1, requested type "simple"
  8435                           ; Number of cases is 3, Range of values is 148 to 212
  8436                           ; switch strategies available:
  8437                           ; Name         Instructions Cycles
  8438                           ; simple_byte           10     6 (average)
  8439                           ;	Chosen strategy is simple_byte
  8440  0032BE  0A94               	xorlw	148	; case 148
  8441  0032C0  B4D8               	btfsc	status,2,c
  8442  0032C2  EF4E  F019         	goto	l2323
  8443  0032C6  0A54               	xorlw	84	; case 192
  8444  0032C8  B4D8               	btfsc	status,2,c
  8445  0032CA  EF58  F019         	goto	l2327
  8446  0032CE  0A14               	xorlw	20	; case 212
  8447  0032D0  B4D8               	btfsc	status,2,c
  8448  0032D2  EF53  F019         	goto	l2325
  8449  0032D6  EF6D  F019         	goto	l399
  8450  0032DA                     l399:
  8451  0032DA  0012               	return		;funcret
  8452  0032DC                     __end_of_lcd_ecritChar:
  8453                           	opt callstack 0
  8454                           
  8455 ;; *************** function _lcd_wrData *****************
  8456 ;; Defined at:
  8457 ;;		line 189 in file "Lcd4Lignes.c"
  8458 ;; Parameters:    Size  Location     Type
  8459 ;;  caractere       1    wreg     unsigned char 
  8460 ;; Auto vars:     Size  Location     Type
  8461 ;;  caractere       1    2[BANK0 ] unsigned char 
  8462 ;; Return value:  Size  Location     Type
  8463 ;;                  1    wreg      unsigned char 
  8464 ;; Registers used:
  8465 ;;		wreg, status,2, status,0, cstack
  8466 ;; Tracked objects:
  8467 ;;		On entry : 0/0
  8468 ;;		On exit  : 0/0
  8469 ;;		Unchanged: 0/0
  8470 ;; Data sizes:     COMRAM   BANK0   BANK1   BANK2   BANK3   BANK4   BANK5
  8471 ;;      Params:         0       0       0       0       0       0       0
  8472 ;;      Locals:         0       1       0       0       0       0       0
  8473 ;;      Temps:          0       0       0       0       0       0       0
  8474 ;;      Totals:         0       1       0       0       0       0       0
  8475 ;;Total ram usage:        1 bytes
  8476 ;; Hardware stack levels used:    1
  8477 ;; Hardware stack levels required when called:    2
  8478 ;; This function calls:
  8479 ;;		_lcd_busy
  8480 ;;		_lcd_ecrireDonnees
  8481 ;;		_lcd_strobeEnableBit
  8482 ;; This function is called by:
  8483 ;;		_lcd_ecritChar
  8484 ;;		_lcd_initCGRam
  8485 ;;		_lcd_effaceChar
  8486 ;; This function uses a non-reentrant model
  8487 ;;
  8488                           
  8489                           	psect	text35
  8490  003392                     __ptext35:
  8491                           	opt callstack 0
  8492  003392                     _lcd_wrData:
  8493                           	opt callstack 25
  8494                           
  8495                           ;incstack = 0
  8496                           ;lcd_wrData@caractere stored from wreg
  8497  003392  0100               	movlb	0	; force () banked
  8498  003394  6FB6               	movwf	lcd_wrData@caractere& (0+255),b
  8499  003396                     
  8500                           ;Lcd4Lignes.c: 191: lcd_busy();
  8501  003396  EC6E  F019         	call	_lcd_busy	;wreg free
  8502  00339A                     
  8503                           ;Lcd4Lignes.c: 192: TRISD = 0b00000000;
  8504  00339A  0E00               	movlw	0
  8505  00339C  6E95               	movwf	149,c	;volatile
  8506  00339E                     
  8507                           ;Lcd4Lignes.c: 195: PORTAbits.RA0 = 1;
  8508  00339E  8080               	bsf	128,0,c	;volatile
  8509  0033A0                     
  8510                           ;Lcd4Lignes.c: 196: PORTAbits.RA1 = 0;
  8511  0033A0  9280               	bcf	128,1,c	;volatile
  8512  0033A2                     
  8513                           ;Lcd4Lignes.c: 198: lcd_ecrireDonnees(caractere >> 4);
  8514  0033A2  0100               	movlb	0	; force () banked
  8515  0033A4  39B6               	swapf	lcd_wrData@caractere& (0+255),w,b
  8516  0033A6  0B0F               	andlw	15
  8517  0033A8  EC30  F01A         	call	_lcd_ecrireDonnees
  8518  0033AC                     
  8519                           ;Lcd4Lignes.c: 199: lcd_strobeEnableBit();
  8520  0033AC  EC59  F01A         	call	_lcd_strobeEnableBit	;wreg free
  8521  0033B0                     
  8522                           ;Lcd4Lignes.c: 202: lcd_ecrireDonnees(caractere);
  8523  0033B0  0100               	movlb	0	; force () banked
  8524  0033B2  51B6               	movf	lcd_wrData@caractere& (0+255),w,b
  8525  0033B4  EC30  F01A         	call	_lcd_ecrireDonnees
  8526  0033B8                     
  8527                           ;Lcd4Lignes.c: 203: lcd_strobeEnableBit();
  8528  0033B8  EC59  F01A         	call	_lcd_strobeEnableBit	;wreg free
  8529  0033BC                     
  8530                           ;Lcd4Lignes.c: 206: TRISD = 0b00001111;
  8531  0033BC  0E0F               	movlw	15
  8532  0033BE  6E95               	movwf	149,c	;volatile
  8533  0033C0                     
  8534                           ;Lcd4Lignes.c: 207: _delay((unsigned long)((2)*(1000000/4000000.0)));
  8535                           ;Lcd4Lignes.c: 208: return(lcd_busy());
  8536  0033C0  EC6E  F019         	call	_lcd_busy	;wreg free
  8537  0033C4  0012               	return		;funcret
  8538  0033C6                     __end_of_lcd_wrData:
  8539                           	opt callstack 0
  8540                           
  8541 ;; *************** function _lcd_gotoXY *****************
  8542 ;; Defined at:
  8543 ;;		line 315 in file "Lcd4Lignes.c"
  8544 ;; Parameters:    Size  Location     Type
  8545 ;;  x               1    wreg     unsigned char 
  8546 ;;  y               1    3[BANK0 ] unsigned char 
  8547 ;; Auto vars:     Size  Location     Type
  8548 ;;  x               1    4[BANK0 ] unsigned char 
  8549 ;; Return value:  Size  Location     Type
  8550 ;;                  1    wreg      void 
  8551 ;; Registers used:
  8552 ;;		wreg, status,2, status,0, cstack
  8553 ;; Tracked objects:
  8554 ;;		On entry : 0/0
  8555 ;;		On exit  : 0/0
  8556 ;;		Unchanged: 0/0
  8557 ;; Data sizes:     COMRAM   BANK0   BANK1   BANK2   BANK3   BANK4   BANK5
  8558 ;;      Params:         0       1       0       0       0       0       0
  8559 ;;      Locals:         0       1       0       0       0       0       0
  8560 ;;      Temps:          0       0       0       0       0       0       0
  8561 ;;      Totals:         0       2       0       0       0       0       0
  8562 ;;Total ram usage:        2 bytes
  8563 ;; Hardware stack levels used:    1
  8564 ;; Hardware stack levels required when called:    3
  8565 ;; This function calls:
  8566 ;;		_lcd_wrCom
  8567 ;; This function is called by:
  8568 ;;		_menuAccueil
  8569 ;;		_afficheTabVue
  8570 ;;		_afficheTabMines
  8571 ;;		_deplace
  8572 ;;		_enleveTuilesAutour
  8573 ;;		_enleveEspaceAutour
  8574 ;;		_afficheGagne
  8575 ;;		_lcd_effaceLigne
  8576 ;; This function uses a non-reentrant model
  8577 ;;
  8578                           
  8579                           	psect	text36
  8580  002EDA                     __ptext36:
  8581                           	opt callstack 0
  8582  002EDA                     _lcd_gotoXY:
  8583                           	opt callstack 26
  8584                           
  8585                           ;incstack = 0
  8586                           ;lcd_gotoXY@x stored from wreg
  8587  002EDA  0100               	movlb	0	; force () banked
  8588  002EDC  6FB8               	movwf	lcd_gotoXY@x& (0+255),b
  8589  002EDE                     
  8590                           ;Lcd4Lignes.c: 317: switch(y)
  8591  002EDE  EF91  F017         	goto	l2345
  8592  002EE2                     l2335:
  8593                           
  8594                           ; BSR set to: 0
  8595                           ;Lcd4Lignes.c: 320: lcd_wrCom((x-1+0x80)|0x80);
  8596  002EE2  0100               	movlb	0	; force () banked
  8597  002EE4  51B8               	movf	lcd_gotoXY@x& (0+255),w,b
  8598  002EE6  0F7F               	addlw	127
  8599  002EE8  0980               	iorlw	128
  8600  002EEA  EC4A  F018         	call	_lcd_wrCom
  8601                           
  8602                           ;Lcd4Lignes.c: 321: break;
  8603  002EEE  EFA5  F017         	goto	l388
  8604  002EF2                     l2337:
  8605                           
  8606                           ; BSR set to: 0
  8607                           ;Lcd4Lignes.c: 323: lcd_wrCom((x-1+0xC0)|0x80);
  8608  002EF2  0100               	movlb	0	; force () banked
  8609  002EF4  51B8               	movf	lcd_gotoXY@x& (0+255),w,b
  8610  002EF6  0FBF               	addlw	191
  8611  002EF8  0980               	iorlw	128
  8612  002EFA  EC4A  F018         	call	_lcd_wrCom
  8613                           
  8614                           ;Lcd4Lignes.c: 324: break;
  8615  002EFE  EFA5  F017         	goto	l388
  8616  002F02                     l2339:
  8617                           
  8618                           ; BSR set to: 0
  8619                           ;Lcd4Lignes.c: 326: lcd_wrCom((x-1+0x94)|0x80);
  8620  002F02  0100               	movlb	0	; force () banked
  8621  002F04  51B8               	movf	lcd_gotoXY@x& (0+255),w,b
  8622  002F06  0F93               	addlw	147
  8623  002F08  0980               	iorlw	128
  8624  002F0A  EC4A  F018         	call	_lcd_wrCom
  8625                           
  8626                           ;Lcd4Lignes.c: 327: break;
  8627  002F0E  EFA5  F017         	goto	l388
  8628  002F12                     l2341:
  8629                           
  8630                           ; BSR set to: 0
  8631                           ;Lcd4Lignes.c: 329: lcd_wrCom((x-1+0xD4)|0x80);
  8632  002F12  0100               	movlb	0	; force () banked
  8633  002F14  51B8               	movf	lcd_gotoXY@x& (0+255),w,b
  8634  002F16  0FD3               	addlw	211
  8635  002F18  0980               	iorlw	128
  8636  002F1A  EC4A  F018         	call	_lcd_wrCom
  8637                           
  8638                           ;Lcd4Lignes.c: 330: break;
  8639  002F1E  EFA5  F017         	goto	l388
  8640  002F22                     l2345:
  8641  002F22  0100               	movlb	0	; force () banked
  8642  002F24  51B7               	movf	lcd_gotoXY@y& (0+255),w,b
  8643                           
  8644                           ; Switch size 1, requested type "simple"
  8645                           ; Number of cases is 4, Range of values is 1 to 4
  8646                           ; switch strategies available:
  8647                           ; Name         Instructions Cycles
  8648                           ; simple_byte           13     7 (average)
  8649                           ;	Chosen strategy is simple_byte
  8650  002F26  0A01               	xorlw	1	; case 1
  8651  002F28  B4D8               	btfsc	status,2,c
  8652  002F2A  EF71  F017         	goto	l2335
  8653  002F2E  0A03               	xorlw	3	; case 2
  8654  002F30  B4D8               	btfsc	status,2,c
  8655  002F32  EF79  F017         	goto	l2337
  8656  002F36  0A01               	xorlw	1	; case 3
  8657  002F38  B4D8               	btfsc	status,2,c
  8658  002F3A  EF81  F017         	goto	l2339
  8659  002F3E  0A07               	xorlw	7	; case 4
  8660  002F40  B4D8               	btfsc	status,2,c
  8661  002F42  EF89  F017         	goto	l2341
  8662  002F46  EFA5  F017         	goto	l388
  8663  002F4A                     l388:
  8664  002F4A  0012               	return		;funcret
  8665  002F4C                     __end_of_lcd_gotoXY:
  8666                           	opt callstack 0
  8667                           
  8668 ;; *************** function _lcd_wrCom *****************
  8669 ;; Defined at:
  8670 ;;		line 157 in file "Lcd4Lignes.c"
  8671 ;; Parameters:    Size  Location     Type
  8672 ;;  commande        1    wreg     unsigned char 
  8673 ;; Auto vars:     Size  Location     Type
  8674 ;;  commande        1    2[BANK0 ] unsigned char 
  8675 ;; Return value:  Size  Location     Type
  8676 ;;                  1    wreg      unsigned char 
  8677 ;; Registers used:
  8678 ;;		wreg, status,2, status,0, cstack
  8679 ;; Tracked objects:
  8680 ;;		On entry : 0/0
  8681 ;;		On exit  : 0/0
  8682 ;;		Unchanged: 0/0
  8683 ;; Data sizes:     COMRAM   BANK0   BANK1   BANK2   BANK3   BANK4   BANK5
  8684 ;;      Params:         0       0       0       0       0       0       0
  8685 ;;      Locals:         0       1       0       0       0       0       0
  8686 ;;      Temps:          0       0       0       0       0       0       0
  8687 ;;      Totals:         0       1       0       0       0       0       0
  8688 ;;Total ram usage:        1 bytes
  8689 ;; Hardware stack levels used:    1
  8690 ;; Hardware stack levels required when called:    2
  8691 ;; This function calls:
  8692 ;;		_lcd_busy
  8693 ;;		_lcd_ecrireDonnees
  8694 ;;		_lcd_strobeEnableBit
  8695 ;; This function is called by:
  8696 ;;		_lcd_init
  8697 ;;		_lcd_effaceAffichage
  8698 ;;		_lcd_curseurHome
  8699 ;;		_lcd_gotoXY
  8700 ;;		_lcd_ecritChar
  8701 ;;		_lcd_cacheCurseur
  8702 ;;		_lcd_montreCurseur
  8703 ;;		_lcd_initCGRam
  8704 ;; This function uses a non-reentrant model
  8705 ;;
  8706                           
  8707                           	psect	text37
  8708  003094                     __ptext37:
  8709                           	opt callstack 0
  8710  003094                     _lcd_wrCom:
  8711                           	opt callstack 25
  8712                           
  8713                           ;incstack = 0
  8714                           ;lcd_wrCom@commande stored from wreg
  8715  003094  0100               	movlb	0	; force () banked
  8716  003096  6FB6               	movwf	lcd_wrCom@commande& (0+255),b
  8717  003098                     
  8718                           ;Lcd4Lignes.c: 159: lcd_busy();
  8719  003098  EC6E  F019         	call	_lcd_busy	;wreg free
  8720  00309C                     
  8721                           ;Lcd4Lignes.c: 161: TRISD = 0b00000000;
  8722  00309C  0E00               	movlw	0
  8723  00309E  6E95               	movwf	149,c	;volatile
  8724  0030A0                     
  8725                           ;Lcd4Lignes.c: 164: PORTAbits.RA0 = 0;
  8726  0030A0  9080               	bcf	128,0,c	;volatile
  8727  0030A2                     
  8728                           ;Lcd4Lignes.c: 165: PORTAbits.RA1 = 0;
  8729  0030A2  9280               	bcf	128,1,c	;volatile
  8730  0030A4                     
  8731                           ;Lcd4Lignes.c: 167: lcd_ecrireDonnees(commande >> 4);
  8732  0030A4  0100               	movlb	0	; force () banked
  8733  0030A6  39B6               	swapf	lcd_wrCom@commande& (0+255),w,b
  8734  0030A8  0B0F               	andlw	15
  8735  0030AA  EC30  F01A         	call	_lcd_ecrireDonnees
  8736  0030AE                     
  8737                           ;Lcd4Lignes.c: 168: lcd_strobeEnableBit();
  8738  0030AE  EC59  F01A         	call	_lcd_strobeEnableBit	;wreg free
  8739  0030B2                     
  8740                           ;Lcd4Lignes.c: 171: lcd_ecrireDonnees(commande);
  8741  0030B2  0100               	movlb	0	; force () banked
  8742  0030B4  51B6               	movf	lcd_wrCom@commande& (0+255),w,b
  8743  0030B6  EC30  F01A         	call	_lcd_ecrireDonnees
  8744  0030BA                     
  8745                           ;Lcd4Lignes.c: 172: lcd_strobeEnableBit();
  8746  0030BA  EC59  F01A         	call	_lcd_strobeEnableBit	;wreg free
  8747  0030BE                     
  8748                           ;Lcd4Lignes.c: 173: _delay((unsigned long)((40)*(1000000/4000000.0)));
  8749  0030BE  0E03               	movlw	3
  8750  0030C0                     u3497:
  8751  0030C0  2EE8               	decfsz	wreg,f,c
  8752  0030C2  D7FE               	bra	u3497
  8753  0030C4  F000               	nop	
  8754  0030C6                     
  8755                           ;Lcd4Lignes.c: 175: if ((commande == 0x01) || commande == 0x02)
  8756  0030C6  0100               	movlb	0	; force () banked
  8757  0030C8  05B6               	decf	lcd_wrCom@commande& (0+255),w,b
  8758  0030CA  B4D8               	btfsc	status,2,c
  8759  0030CC  EF6A  F018         	goto	u1741
  8760  0030D0  EF6C  F018         	goto	u1740
  8761  0030D4                     u1741:
  8762  0030D4  EF76  F018         	goto	l2283
  8763  0030D8                     u1740:
  8764  0030D8                     
  8765                           ; BSR set to: 0
  8766  0030D8  0E02               	movlw	2
  8767  0030DA  0100               	movlb	0	; force () banked
  8768  0030DC  19B6               	xorwf	lcd_wrCom@commande& (0+255),w,b
  8769  0030DE  A4D8               	btfss	status,2,c
  8770  0030E0  EF74  F018         	goto	u1751
  8771  0030E4  EF76  F018         	goto	u1750
  8772  0030E8                     u1751:
  8773  0030E8  EF7B  F018         	goto	l2285
  8774  0030EC                     u1750:
  8775  0030EC                     l2283:
  8776                           
  8777                           ; BSR set to: 0
  8778                           ;Lcd4Lignes.c: 176: _delay((unsigned long)((2)*(1000000/4000.0)));
  8779  0030EC  0EA6               	movlw	166
  8780  0030EE                     u3507:
  8781  0030EE  2EE8               	decfsz	wreg,f,c
  8782  0030F0  D7FE               	bra	u3507
  8783  0030F2  F000 F000          	nop2	
  8784  0030F6                     l2285:
  8785                           
  8786                           ;Lcd4Lignes.c: 178: TRISD = 0b00001111;
  8787  0030F6  0E0F               	movlw	15
  8788  0030F8  6E95               	movwf	149,c	;volatile
  8789  0030FA                     
  8790                           ;Lcd4Lignes.c: 180: return(lcd_busy());
  8791  0030FA  EC6E  F019         	call	_lcd_busy	;wreg free
  8792  0030FE  0012               	return		;funcret
  8793  003100                     __end_of_lcd_wrCom:
  8794                           	opt callstack 0
  8795                           
  8796 ;; *************** function _lcd_strobeEnableBit *****************
  8797 ;; Defined at:
  8798 ;;		line 432 in file "Lcd4Lignes.c"
  8799 ;; Parameters:    Size  Location     Type
  8800 ;;		None
  8801 ;; Auto vars:     Size  Location     Type
  8802 ;;		None
  8803 ;; Return value:  Size  Location     Type
  8804 ;;                  1    wreg      void 
  8805 ;; Registers used:
  8806 ;;		None
  8807 ;; Tracked objects:
  8808 ;;		On entry : 0/0
  8809 ;;		On exit  : 0/0
  8810 ;;		Unchanged: 0/0
  8811 ;; Data sizes:     COMRAM   BANK0   BANK1   BANK2   BANK3   BANK4   BANK5
  8812 ;;      Params:         0       0       0       0       0       0       0
  8813 ;;      Locals:         0       0       0       0       0       0       0
  8814 ;;      Temps:          0       0       0       0       0       0       0
  8815 ;;      Totals:         0       0       0       0       0       0       0
  8816 ;;Total ram usage:        0 bytes
  8817 ;; Hardware stack levels used:    1
  8818 ;; This function calls:
  8819 ;;		Nothing
  8820 ;; This function is called by:
  8821 ;;		_lcd_wrCom
  8822 ;;		_lcd_wrData
  8823 ;;		_lcd_resetSequence
  8824 ;; This function uses a non-reentrant model
  8825 ;;
  8826                           
  8827                           	psect	text38
  8828  0034B2                     __ptext38:
  8829                           	opt callstack 0
  8830  0034B2                     _lcd_strobeEnableBit:
  8831                           	opt callstack 26
  8832  0034B2                     
  8833                           ;Lcd4Lignes.c: 434: PORTAbits.RA2 = 1;
  8834  0034B2  8480               	bsf	128,2,c	;volatile
  8835                           
  8836                           ;Lcd4Lignes.c: 435: __nop();
  8837  0034B4  F000               	nop	
  8838                           
  8839                           ;Lcd4Lignes.c: 436: PORTAbits.RA2 = 0;
  8840  0034B6  9480               	bcf	128,2,c	;volatile
  8841  0034B8  0012               	return		;funcret
  8842  0034BA                     __end_of_lcd_strobeEnableBit:
  8843                           	opt callstack 0
  8844                           
  8845 ;; *************** function _lcd_ecrireDonnees *****************
  8846 ;; Defined at:
  8847 ;;		line 108 in file "Lcd4Lignes.c"
  8848 ;; Parameters:    Size  Location     Type
  8849 ;;  donnee          1    wreg     unsigned char 
  8850 ;; Auto vars:     Size  Location     Type
  8851 ;;  donnee          1    1[BANK0 ] unsigned char 
  8852 ;; Return value:  Size  Location     Type
  8853 ;;                  1    wreg      void 
  8854 ;; Registers used:
  8855 ;;		wreg, status,2, status,0
  8856 ;; Tracked objects:
  8857 ;;		On entry : 0/0
  8858 ;;		On exit  : 0/0
  8859 ;;		Unchanged: 0/0
  8860 ;; Data sizes:     COMRAM   BANK0   BANK1   BANK2   BANK3   BANK4   BANK5
  8861 ;;      Params:         0       0       0       0       0       0       0
  8862 ;;      Locals:         0       1       0       0       0       0       0
  8863 ;;      Temps:          0       1       0       0       0       0       0
  8864 ;;      Totals:         0       2       0       0       0       0       0
  8865 ;;Total ram usage:        2 bytes
  8866 ;; Hardware stack levels used:    1
  8867 ;; This function calls:
  8868 ;;		Nothing
  8869 ;; This function is called by:
  8870 ;;		_lcd_wrCom
  8871 ;;		_lcd_wrData
  8872 ;;		_lcd_resetSequence
  8873 ;; This function uses a non-reentrant model
  8874 ;;
  8875                           
  8876                           	psect	text39
  8877  003460                     __ptext39:
  8878                           	opt callstack 0
  8879  003460                     _lcd_ecrireDonnees:
  8880                           	opt callstack 26
  8881                           
  8882                           ;incstack = 0
  8883                           ;lcd_ecrireDonnees@donnee stored from wreg
  8884  003460  0100               	movlb	0	; force () banked
  8885  003462  6FB5               	movwf	lcd_ecrireDonnees@donnee& (0+255),b
  8886  003464                     
  8887                           ;Lcd4Lignes.c: 111: PORTD = (donnee & 0x0F) | (PORTD & 0xF0);
  8888  003464  CF83 F0B4          	movff	3971,??_lcd_ecrireDonnees	;volatile
  8889  003468  0EF0               	movlw	240
  8890  00346A  0100               	movlb	0	; force () banked
  8891  00346C  17B4               	andwf	??_lcd_ecrireDonnees& (0+255),f,b
  8892  00346E  0100               	movlb	0	; force () banked
  8893  003470  51B5               	movf	lcd_ecrireDonnees@donnee& (0+255),w,b
  8894  003472  0B0F               	andlw	15
  8895  003474  0100               	movlb	0	; force () banked
  8896  003476  11B4               	iorwf	??_lcd_ecrireDonnees& (0+255),w,b
  8897  003478  6E83               	movwf	131,c	;volatile
  8898  00347A                     
  8899                           ; BSR set to: 0
  8900  00347A  0012               	return		;funcret
  8901  00347C                     __end_of_lcd_ecrireDonnees:
  8902                           	opt callstack 0
  8903                           
  8904 ;; *************** function _lcd_busy *****************
  8905 ;; Defined at:
  8906 ;;		line 125 in file "Lcd4Lignes.c"
  8907 ;; Parameters:    Size  Location     Type
  8908 ;;		None
  8909 ;; Auto vars:     Size  Location     Type
  8910 ;;  adresse         1    1[BANK0 ] unsigned char 
  8911 ;; Return value:  Size  Location     Type
  8912 ;;                  1    wreg      unsigned char 
  8913 ;; Registers used:
  8914 ;;		wreg, status,2, status,0, cstack
  8915 ;; Tracked objects:
  8916 ;;		On entry : 0/0
  8917 ;;		On exit  : 0/0
  8918 ;;		Unchanged: 0/0
  8919 ;; Data sizes:     COMRAM   BANK0   BANK1   BANK2   BANK3   BANK4   BANK5
  8920 ;;      Params:         0       0       0       0       0       0       0
  8921 ;;      Locals:         0       1       0       0       0       0       0
  8922 ;;      Temps:          0       1       0       0       0       0       0
  8923 ;;      Totals:         0       2       0       0       0       0       0
  8924 ;;Total ram usage:        2 bytes
  8925 ;; Hardware stack levels used:    1
  8926 ;; Hardware stack levels required when called:    1
  8927 ;; This function calls:
  8928 ;;		_lcd_lireDonnees
  8929 ;; This function is called by:
  8930 ;;		_lcd_wrCom
  8931 ;;		_lcd_wrData
  8932 ;; This function uses a non-reentrant model
  8933 ;;
  8934                           
  8935                           	psect	text40
  8936  0032DC                     __ptext40:
  8937                           	opt callstack 0
  8938  0032DC                     _lcd_busy:
  8939                           	opt callstack 25
  8940  0032DC                     
  8941                           ;Lcd4Lignes.c: 127: unsigned char adresse;;Lcd4Lignes.c: 129: PORTAbits.RA0 = 0;
  8942  0032DC  9080               	bcf	128,0,c	;volatile
  8943                           
  8944                           ;Lcd4Lignes.c: 130: PORTAbits.RA1 = 1;
  8945  0032DE  8280               	bsf	128,1,c	;volatile
  8946  0032E0                     l350:
  8947                           
  8948                           ;Lcd4Lignes.c: 133: {;Lcd4Lignes.c: 134: PORTAbits.RA2 = 1;
  8949  0032E0  8480               	bsf	128,2,c	;volatile
  8950                           
  8951                           ;Lcd4Lignes.c: 135: __nop();
  8952  0032E2  F000               	nop	
  8953  0032E4                     
  8954                           ;Lcd4Lignes.c: 136: adresse = lcd_lireDonnees() << 4;
  8955  0032E4  EC5D  F01A         	call	_lcd_lireDonnees	;wreg free
  8956  0032E8  0100               	movlb	0	; force () banked
  8957  0032EA  6FB4               	movwf	??_lcd_busy& (0+255),b
  8958  0032EC  39B4               	swapf	??_lcd_busy& (0+255),w,b
  8959  0032EE  0BF0               	andlw	240
  8960  0032F0  0100               	movlb	0	; force () banked
  8961  0032F2  6FB5               	movwf	lcd_busy@adresse& (0+255),b
  8962  0032F4                     
  8963                           ; BSR set to: 0
  8964                           ;Lcd4Lignes.c: 137: PORTAbits.RA2 = 0;
  8965  0032F4  9480               	bcf	128,2,c	;volatile
  8966  0032F6                     
  8967                           ;Lcd4Lignes.c: 139: PORTAbits.RA2 = 1;
  8968  0032F6  8480               	bsf	128,2,c	;volatile
  8969  0032F8                     
  8970                           ;Lcd4Lignes.c: 140: __nop();
  8971  0032F8  F000               	nop	
  8972                           
  8973                           ;Lcd4Lignes.c: 141: adresse |= lcd_lireDonnees();
  8974  0032FA  EC5D  F01A         	call	_lcd_lireDonnees	;wreg free
  8975  0032FE  0100               	movlb	0	; force () banked
  8976  003300  13B5               	iorwf	lcd_busy@adresse& (0+255),f,b
  8977  003302                     
  8978                           ; BSR set to: 0
  8979                           ;Lcd4Lignes.c: 142: PORTAbits.RA2 = 0;
  8980  003302  9480               	bcf	128,2,c	;volatile
  8981  003304                     
  8982                           ;Lcd4Lignes.c: 144: };Lcd4Lignes.c: 145: while(adresse&0x80);
  8983  003304  0100               	movlb	0	; force () banked
  8984  003306  BFB5               	btfsc	lcd_busy@adresse& (0+255),7,b
  8985  003308  EF88  F019         	goto	u1731
  8986  00330C  EF8A  F019         	goto	u1730
  8987  003310                     u1731:
  8988  003310  EF70  F019         	goto	l350
  8989  003314                     u1730:
  8990  003314                     
  8991                           ; BSR set to: 0
  8992                           ;Lcd4Lignes.c: 147: PORTAbits.RA1 = 0;
  8993  003314  9280               	bcf	128,1,c	;volatile
  8994  003316                     
  8995                           ; BSR set to: 0
  8996                           ;Lcd4Lignes.c: 148: return(adresse&0x7f);
  8997  003316  0100               	movlb	0	; force () banked
  8998  003318  51B5               	movf	lcd_busy@adresse& (0+255),w,b
  8999  00331A  0B7F               	andlw	127
  9000  00331C                     
  9001                           ; BSR set to: 0
  9002  00331C  0012               	return		;funcret
  9003  00331E                     __end_of_lcd_busy:
  9004                           	opt callstack 0
  9005                           
  9006 ;; *************** function _lcd_lireDonnees *****************
  9007 ;; Defined at:
  9008 ;;		line 94 in file "Lcd4Lignes.c"
  9009 ;; Parameters:    Size  Location     Type
  9010 ;;		None
  9011 ;; Auto vars:     Size  Location     Type
  9012 ;;		None
  9013 ;; Return value:  Size  Location     Type
  9014 ;;                  1    wreg      unsigned char 
  9015 ;; Registers used:
  9016 ;;		wreg, status,2, status,0
  9017 ;; Tracked objects:
  9018 ;;		On entry : 0/0
  9019 ;;		On exit  : 0/0
  9020 ;;		Unchanged: 0/0
  9021 ;; Data sizes:     COMRAM   BANK0   BANK1   BANK2   BANK3   BANK4   BANK5
  9022 ;;      Params:         0       0       0       0       0       0       0
  9023 ;;      Locals:         0       0       0       0       0       0       0
  9024 ;;      Temps:          0       0       0       0       0       0       0
  9025 ;;      Totals:         0       0       0       0       0       0       0
  9026 ;;Total ram usage:        0 bytes
  9027 ;; Hardware stack levels used:    1
  9028 ;; This function calls:
  9029 ;;		Nothing
  9030 ;; This function is called by:
  9031 ;;		_lcd_busy
  9032 ;; This function uses a non-reentrant model
  9033 ;;
  9034                           
  9035                           	psect	text41
  9036  0034BA                     __ptext41:
  9037                           	opt callstack 0
  9038  0034BA                     _lcd_lireDonnees:
  9039                           	opt callstack 25
  9040  0034BA                     
  9041                           ;Lcd4Lignes.c: 97: return (PORTD & 0x0f);
  9042  0034BA  5083               	movf	131,w,c	;volatile
  9043  0034BC  0B0F               	andlw	15
  9044  0034BE  0012               	return		;funcret
  9045  0034C0                     __end_of_lcd_lireDonnees:
  9046                           	opt callstack 0
  9047                           
  9048                           	psect	param0
  9049  0000                     tosu	equ	0xFFF
  9050                           tosh	equ	0xFFE
  9051                           tosl	equ	0xFFD
  9052                           stkptr	equ	0xFFC
  9053                           pclatu	equ	0xFFB
  9054                           pclath	equ	0xFFA
  9055                           pcl	equ	0xFF9
  9056                           tblptru	equ	0xFF8
  9057                           tblptrh	equ	0xFF7
  9058                           tblptrl	equ	0xFF6
  9059                           tablat	equ	0xFF5
  9060                           prodh	equ	0xFF4
  9061                           prodl	equ	0xFF3
  9062                           indf0	equ	0xFEF
  9063                           postinc0	equ	0xFEE
  9064                           postdec0	equ	0xFED
  9065                           preinc0	equ	0xFEC
  9066                           plusw0	equ	0xFEB
  9067                           fsr0h	equ	0xFEA
  9068                           fsr0l	equ	0xFE9
  9069                           wreg	equ	0xFE8
  9070                           indf1	equ	0xFE7
  9071                           postinc1	equ	0xFE6
  9072                           postdec1	equ	0xFE5
  9073                           preinc1	equ	0xFE4
  9074                           plusw1	equ	0xFE3
  9075                           fsr1h	equ	0xFE2
  9076                           fsr1l	equ	0xFE1
  9077                           bsr	equ	0xFE0
  9078                           indf2	equ	0xFDF
  9079                           postinc2	equ	0xFDE
  9080                           postdec2	equ	0xFDD
  9081                           preinc2	equ	0xFDC
  9082                           plusw2	equ	0xFDB
  9083                           fsr2h	equ	0xFDA
  9084                           fsr2l	equ	0xFD9
  9085                           status	equ	0xFD8


Data Sizes:
    Strings     17
    Constant    40
    Data        68
    BSS         168
    Persistent  0
    Stack       0

Auto Spaces:
    Space          Size  Autos    Used
    COMRAM           95      0       0
    BANK0           160     66     154
    BANK1           256    156     240
    BANK2           256      0      64
    BANK3           256      0       0
    BANK4           256      0       0
    BANK5           256      0       0

Pointer List with Targets:

    lcd_putMessage@chaine	PTR const unsigned char  size(3) Largest target is 84
		 -> STR_2(CODE[8]), STR_1(CODE[9]), m_tabMines(BANK0[84]), menuAccueil@menuMsgs(BANK0[40]), 
		 -> m_tabVue(BANK1[84]), 

    gagne@pMines	PTR int  size(2) Largest target is 2
		 -> main@nbMines(BANK0[2]), 

    deplace@y	PTR unsigned char  size(2) Largest target is 1
		 -> main@posY(BANK0[1]), 

    deplace@x	PTR unsigned char  size(2) Largest target is 1
		 -> main@posX(BANK0[1]), 

    verifieToucheEspace@tabVerif	PTR int  size(2) Largest target is 152
		 -> openSpaces@caseVide(BANK1[152]), 


Critical Paths under _main in COMRAM

    None.

Critical Paths under _main in BANK0

    _main->_menuAccueil
    _rempliMines->___awmod
    _rand->___lmul
    _metToucheCombien->_calculToucheCombien
    _calculToucheCombien->___wmul
    _menuAccueil->_lcd_putMessage
    _lcd_cacheCurseur->_lcd_wrCom
    _lcd_montreCurseur->_lcd_wrCom
    _lcd_init->_lcd_initCGRam
    _lcd_resetSequence->_lcd_ecrireDonnees
    _lcd_initCGRam->_lcd_wrCom
    _lcd_initCGRam->_lcd_wrData
    _lcd_curseurHome->_lcd_wrCom
    _initialisation->_srand
    _gagne->_afficheGagne
    _afficheGagne->_lcd_putMessage
    _lcd_effaceAffichage->_lcd_wrCom
    _deplace->_lcd_gotoXY
    _demine->_enleveTuilesAutour
    _enleveTuilesAutour->_openSpaces
    _openSpaces->___awmod
    _openSpaces->_enleveEspaceAutour
    _verifieToucheEspace->___wmul
    _enleveEspaceAutour->___wmul
    ___awmod->_rand
    _afficheTabVue->_lcd_putMessage
    _afficheTabMines->_lcd_putMessage
    _lcd_putMessage->_lcd_ecritChar
    _lcd_ecritChar->_lcd_wrCom
    _lcd_ecritChar->_lcd_wrData
    _lcd_wrData->_lcd_busy
    _lcd_wrData->_lcd_ecrireDonnees
    _lcd_gotoXY->_lcd_wrCom
    _lcd_wrCom->_lcd_busy
    _lcd_wrCom->_lcd_ecrireDonnees

Critical Paths under _main in BANK1

    _enleveTuilesAutour->_openSpaces

Critical Paths under _main in BANK2

    None.

Critical Paths under _main in BANK3

    None.

Critical Paths under _main in BANK4

    None.

Critical Paths under _main in BANK5

    None.

Call Graph Tables:

 ---------------------------------------------------------------------------------
 (Depth) Function   	        Calls       Base Space   Used Autos Params    Refs
 ---------------------------------------------------------------------------------
 (0) _main                                                10    10      0   57208
                                             56 BANK0     10    10      0
                    _afficheTabMines
                      _afficheTabVue
                             _demine
                            _deplace
                              _gagne
                         _initTabVue
                         _init_serie
                     _initialisation
                      _lcd_ecritChar
                           _lcd_init
                  _lcd_montreCurseur
                        _menuAccueil
                   _metToucheCombien
                        _rempliMines
 ---------------------------------------------------------------------------------
 (1) _rempliMines                                          8     6      2    1394
                                             20 BANK0      8     6      2
                            ___awmod
                               _rand
                          _videMines
 ---------------------------------------------------------------------------------
 (2) _videMines                                            4     4      0     136
                                              0 BANK0      4     4      0
 ---------------------------------------------------------------------------------
 (2) _rand                                                 2     0      2     370
                                             12 BANK0      2     0      2
                             ___lmul
 ---------------------------------------------------------------------------------
 (3) ___lmul                                              12     4      8     370
                                              0 BANK0     12     4      8
 ---------------------------------------------------------------------------------
 (1) _metToucheCombien                                     7     7      0    9316
                                             16 BANK0      7     7      0
                _calculToucheCombien
 ---------------------------------------------------------------------------------
 (2) _calculToucheCombien                                 10     6      4    8890
                                              6 BANK0     10     6      4
                             ___wmul
 ---------------------------------------------------------------------------------
 (1) _menuAccueil                                         42    42      0    2400
                                             14 BANK0     42    42      0
                   _lcd_cacheCurseur
                    _lcd_curseurHome
                _lcd_effaceAffichage
                         _lcd_gotoXY
                     _lcd_putMessage
 ---------------------------------------------------------------------------------
 (2) _lcd_cacheCurseur                                     0     0      0     156
                          _lcd_wrCom
 ---------------------------------------------------------------------------------
 (1) _lcd_montreCurseur                                    0     0      0     156
                          _lcd_wrCom
 ---------------------------------------------------------------------------------
 (1) _lcd_init                                             0     0      0     738
                      _lcd_initCGRam
                  _lcd_resetSequence
                          _lcd_wrCom
 ---------------------------------------------------------------------------------
 (2) _lcd_resetSequence                                    1     1      0      22
                                              2 BANK0      1     1      0
                  _lcd_ecrireDonnees
                _lcd_strobeEnableBit
 ---------------------------------------------------------------------------------
 (2) _lcd_initCGRam                                        4     4      0     560
                                              3 BANK0      4     4      0
                    _lcd_curseurHome
                          _lcd_wrCom
                         _lcd_wrData
 ---------------------------------------------------------------------------------
 (2) _lcd_curseurHome                                      0     0      0     156
                          _lcd_wrCom
 ---------------------------------------------------------------------------------
 (1) _initialisation                                       0     0      0      98
                              _srand
 ---------------------------------------------------------------------------------
 (2) _srand                                                2     0      2      98
                                              0 BANK0      2     0      2
 ---------------------------------------------------------------------------------
 (1) _init_serie                                           0     0      0       0
 ---------------------------------------------------------------------------------
 (1) _initTabVue                                           5     5      0     204
                                              0 BANK0      5     5      0
 ---------------------------------------------------------------------------------
 (1) _gagne                                               10     8      2    2610
                                             16 BANK0     10     8      2
                       _afficheGagne
 ---------------------------------------------------------------------------------
 (2) _afficheGagne                                         2     2      0    2041
                                             14 BANK0      2     2      0
                _lcd_effaceAffichage
                         _lcd_gotoXY
                     _lcd_putMessage
 ---------------------------------------------------------------------------------
 (2) _lcd_effaceAffichage                                  0     0      0     156
                          _lcd_wrCom
 ---------------------------------------------------------------------------------
 (1) _deplace                                              5     1      4    1596
                                              5 BANK0      5     1      4
                          _getAnalog
                         _lcd_gotoXY
 ---------------------------------------------------------------------------------
 (2) _getAnalog                                            2     2      0      22
                                              0 BANK0      2     2      0
 ---------------------------------------------------------------------------------
 (1) _demine                                              10     9      1   34047
                                             42 BANK0     10     9      1
                 _enleveTuilesAutour
                      _lcd_ecritChar
 ---------------------------------------------------------------------------------
 (2) _enleveTuilesAutour                                  14    13      1   33262
                                             28 BANK0     14    13      1
                             ___wmul
                      _lcd_ecritChar
                         _lcd_gotoXY
                         _openSpaces
 ---------------------------------------------------------------------------------
 (3) _openSpaces                                         164   160      4   22778
                                             20 BANK0      8     4      4
                                              0 BANK1    156   156      0
                            ___awdiv
                            ___awmod
                 _enleveEspaceAutour
                      _lcd_ecritChar
                _verifieToucheEspace
 ---------------------------------------------------------------------------------
 (4) _verifieToucheEspace                                 13     6      7   10358
                                              6 BANK0     13     6      7
                             ___wmul
 ---------------------------------------------------------------------------------
 (4) _enleveEspaceAutour                                  14    13      1   10308
                                              6 BANK0     14    13      1
                             ___wmul
                      _lcd_ecritChar
                         _lcd_gotoXY
 ---------------------------------------------------------------------------------
 (3) ___wmul                                               6     2      4    8047
                                              0 BANK0      6     2      4
 ---------------------------------------------------------------------------------
 (2) ___awmod                                              6     2      4     600
                                             14 BANK0      6     2      4
                               _rand (ARG)
 ---------------------------------------------------------------------------------
 (4) ___awdiv                                              8     4      4     452
                                              0 BANK0      8     4      4
 ---------------------------------------------------------------------------------
 (1) _afficheTabVue                                        3     3      0    1975
                                             14 BANK0      3     3      0
                         _lcd_gotoXY
                     _lcd_putMessage
 ---------------------------------------------------------------------------------
 (1) _afficheTabMines                                      3     3      0    1975
                                             14 BANK0      3     3      0
                         _lcd_gotoXY
                     _lcd_putMessage
 ---------------------------------------------------------------------------------
 (2) _lcd_putMessage                                       9     6      3     859
                                              5 BANK0      9     6      3
                      _lcd_ecritChar
 ---------------------------------------------------------------------------------
 (3) _lcd_ecritChar                                        2     2      0     313
                                              3 BANK0      2     2      0
                          _lcd_wrCom
                         _lcd_wrData
 ---------------------------------------------------------------------------------
 (4) _lcd_wrData                                           1     1      0     112
                                              2 BANK0      1     1      0
                           _lcd_busy
                  _lcd_ecrireDonnees
                _lcd_strobeEnableBit
 ---------------------------------------------------------------------------------
 (2) _lcd_gotoXY                                           2     1      1    1026
                                              3 BANK0      2     1      1
                          _lcd_wrCom
 ---------------------------------------------------------------------------------
 (4) _lcd_wrCom                                            1     1      0     156
                                              2 BANK0      1     1      0
                           _lcd_busy
                  _lcd_ecrireDonnees
                _lcd_strobeEnableBit
 ---------------------------------------------------------------------------------
 (5) _lcd_strobeEnableBit                                  0     0      0       0
 ---------------------------------------------------------------------------------
 (5) _lcd_ecrireDonnees                                    2     2      0      22
                                              0 BANK0      2     2      0
 ---------------------------------------------------------------------------------
 (5) _lcd_busy                                             2     2      0      46
                                              0 BANK0      2     2      0
                    _lcd_lireDonnees
 ---------------------------------------------------------------------------------
 (6) _lcd_lireDonnees                                      0     0      0       0
 ---------------------------------------------------------------------------------
 Estimated maximum stack depth 6
 ---------------------------------------------------------------------------------

 Call Graph Graphs:

 _main (ROOT)
   _afficheTabMines
     _lcd_gotoXY
       _lcd_wrCom
         _lcd_busy
           _lcd_lireDonnees
         _lcd_ecrireDonnees
         _lcd_strobeEnableBit
     _lcd_putMessage
       _lcd_ecritChar
         _lcd_wrCom
           _lcd_busy
             _lcd_lireDonnees
           _lcd_ecrireDonnees
           _lcd_strobeEnableBit
         _lcd_wrData
           _lcd_busy
             _lcd_lireDonnees
           _lcd_ecrireDonnees
           _lcd_strobeEnableBit
   _afficheTabVue
     _lcd_gotoXY
       _lcd_wrCom
         _lcd_busy
           _lcd_lireDonnees
         _lcd_ecrireDonnees
         _lcd_strobeEnableBit
     _lcd_putMessage
       _lcd_ecritChar
         _lcd_wrCom
           _lcd_busy
             _lcd_lireDonnees
           _lcd_ecrireDonnees
           _lcd_strobeEnableBit
         _lcd_wrData
           _lcd_busy
             _lcd_lireDonnees
           _lcd_ecrireDonnees
           _lcd_strobeEnableBit
   _demine
     _enleveTuilesAutour
       ___wmul
       _lcd_ecritChar
         _lcd_wrCom
           _lcd_busy
             _lcd_lireDonnees
           _lcd_ecrireDonnees
           _lcd_strobeEnableBit
         _lcd_wrData
           _lcd_busy
             _lcd_lireDonnees
           _lcd_ecrireDonnees
           _lcd_strobeEnableBit
       _lcd_gotoXY
         _lcd_wrCom
           _lcd_busy
             _lcd_lireDonnees
           _lcd_ecrireDonnees
           _lcd_strobeEnableBit
       _openSpaces
         ___awdiv
         ___awmod
           _rand (ARG)
             ___lmul
         _enleveEspaceAutour
           ___wmul
           _lcd_ecritChar
             _lcd_wrCom
               _lcd_busy
                 _lcd_lireDonnees
               _lcd_ecrireDonnees
               _lcd_strobeEnableBit
             _lcd_wrData
               _lcd_busy
                 _lcd_lireDonnees
               _lcd_ecrireDonnees
               _lcd_strobeEnableBit
           _lcd_gotoXY
             _lcd_wrCom
               _lcd_busy
                 _lcd_lireDonnees
               _lcd_ecrireDonnees
               _lcd_strobeEnableBit
         _lcd_ecritChar
           _lcd_wrCom
             _lcd_busy
               _lcd_lireDonnees
             _lcd_ecrireDonnees
             _lcd_strobeEnableBit
           _lcd_wrData
             _lcd_busy
               _lcd_lireDonnees
             _lcd_ecrireDonnees
             _lcd_strobeEnableBit
         _verifieToucheEspace
           ___wmul
     _lcd_ecritChar
       _lcd_wrCom
         _lcd_busy
           _lcd_lireDonnees
         _lcd_ecrireDonnees
         _lcd_strobeEnableBit
       _lcd_wrData
         _lcd_busy
           _lcd_lireDonnees
         _lcd_ecrireDonnees
         _lcd_strobeEnableBit
   _deplace
     _getAnalog
     _lcd_gotoXY
       _lcd_wrCom
         _lcd_busy
           _lcd_lireDonnees
         _lcd_ecrireDonnees
         _lcd_strobeEnableBit
   _gagne
     _afficheGagne
       _lcd_effaceAffichage
         _lcd_wrCom
           _lcd_busy
             _lcd_lireDonnees
           _lcd_ecrireDonnees
           _lcd_strobeEnableBit
       _lcd_gotoXY
         _lcd_wrCom
           _lcd_busy
             _lcd_lireDonnees
           _lcd_ecrireDonnees
           _lcd_strobeEnableBit
       _lcd_putMessage
         _lcd_ecritChar
           _lcd_wrCom
             _lcd_busy
               _lcd_lireDonnees
             _lcd_ecrireDonnees
             _lcd_strobeEnableBit
           _lcd_wrData
             _lcd_busy
               _lcd_lireDonnees
             _lcd_ecrireDonnees
             _lcd_strobeEnableBit
   _initTabVue
   _init_serie
   _initialisation
     _srand
   _lcd_ecritChar
     _lcd_wrCom
       _lcd_busy
         _lcd_lireDonnees
       _lcd_ecrireDonnees
       _lcd_strobeEnableBit
     _lcd_wrData
       _lcd_busy
         _lcd_lireDonnees
       _lcd_ecrireDonnees
       _lcd_strobeEnableBit
   _lcd_init
     _lcd_initCGRam
       _lcd_curseurHome
         _lcd_wrCom
           _lcd_busy
             _lcd_lireDonnees
           _lcd_ecrireDonnees
           _lcd_strobeEnableBit
       _lcd_wrCom
         _lcd_busy
           _lcd_lireDonnees
         _lcd_ecrireDonnees
         _lcd_strobeEnableBit
       _lcd_wrData
         _lcd_busy
           _lcd_lireDonnees
         _lcd_ecrireDonnees
         _lcd_strobeEnableBit
     _lcd_resetSequence
       _lcd_ecrireDonnees
       _lcd_strobeEnableBit
     _lcd_wrCom
       _lcd_busy
         _lcd_lireDonnees
       _lcd_ecrireDonnees
       _lcd_strobeEnableBit
   _lcd_montreCurseur
     _lcd_wrCom
       _lcd_busy
         _lcd_lireDonnees
       _lcd_ecrireDonnees
       _lcd_strobeEnableBit
   _menuAccueil
     _lcd_cacheCurseur
       _lcd_wrCom
         _lcd_busy
           _lcd_lireDonnees
         _lcd_ecrireDonnees
         _lcd_strobeEnableBit
     _lcd_curseurHome
       _lcd_wrCom
         _lcd_busy
           _lcd_lireDonnees
         _lcd_ecrireDonnees
         _lcd_strobeEnableBit
     _lcd_effaceAffichage
       _lcd_wrCom
         _lcd_busy
           _lcd_lireDonnees
         _lcd_ecrireDonnees
         _lcd_strobeEnableBit
     _lcd_gotoXY
       _lcd_wrCom
         _lcd_busy
           _lcd_lireDonnees
         _lcd_ecrireDonnees
         _lcd_strobeEnableBit
     _lcd_putMessage
       _lcd_ecritChar
         _lcd_wrCom
           _lcd_busy
             _lcd_lireDonnees
           _lcd_ecrireDonnees
           _lcd_strobeEnableBit
         _lcd_wrData
           _lcd_busy
             _lcd_lireDonnees
           _lcd_ecrireDonnees
           _lcd_strobeEnableBit
   _metToucheCombien
     _calculToucheCombien
       ___wmul
   _rempliMines
     ___awmod
       _rand (ARG)
         ___lmul
     _rand
       ___lmul
     _videMines

 Address spaces:
Name               Size   Autos  Total    Cost      Usage
BIGRAM             5FF      0       0      17        0.0%
EEDATA             100      0       0       0        0.0%
BITBANK5           100      0       0      16        0.0%
BANK5              100      0       0      14        0.0%
BITBANK4           100      0       0      12        0.0%
BANK4              100      0       0      13        0.0%
BITBANK3           100      0       0      10        0.0%
BANK3              100      0       0      11        0.0%
BITBANK2           100      0       0       8        0.0%
BANK2              100      0      40       9       25.0%
BITBANK1           100      0       0       6        0.0%
BANK1              100     9C      F0       7       93.8%
BITBANK0            A0      0       0       4        0.0%
BANK0               A0     42      9A       5       96.3%
BITCOMRAM           5F      0       0       0        0.0%
COMRAM              5F      0       0       1        0.0%
BITSFR               0      0       0     200        0.0%
SFR                  0      0       0     200        0.0%
STACK                0      0       0       2        0.0%
NULL                 0      0       0       0        0.0%
ABS                  0      0     1CA      15        0.0%
DATA                 0      0     1CA       3        0.0%
CODE                 0      0       0       0        0.0%


Microchip Technology PIC18 Macro Assembler V2.10 build 88905656 
Symbol Table                                                                                   Thu Nov 28 11:37:57 2019

    __end_of_calculToucheCombien 1548                               l90 22A8  
                             l94 227E             ??_enleveTuilesAutour 00D1  
                   ___awdiv@sign 00B9              ___wmul@multiplicand 00B6  
                   __CFG_CP0$OFF 000000                     __CFG_CP1$OFF 000000  
                   __CFG_CP2$OFF 000000                     __CFG_CP3$OFF 000000  
   __size_of_lcd_strobeEnableBit 0008                              l201 2608  
                            l123 2FB8                              l301 345E  
                            l109 2ED8                              l214 294E  
                            l118 2A2C                              l142 2BB4  
                            l135 2E52                              l128 3026  
                            l154 27C8                              l235 1976  
                            l219 21CA                              l411 34A8  
                            l421 34B8                              l405 2C68  
                            l350 32E0                              l174 1546  
                            l351 3314                              l247 1CF6  
                            l344 34BE                              l352 331C  
                            l424 3440                              l272 33E0  
                            l408 34A0                              l361 33C4  
                            l193 10B8                              l265 1F68  
                            l370 3498                              l418 2DBC  
                            l347 347A                              l275 33F0  
                            l259 1EC2                              l435 3082  
                            l364 3168                              l436 3092  
                            l269 31D2                              l373 34B0  
                            l358 30FE                              l278 3390  
                            l367 3418                              l388 2F4A  
                            l399 32DA                              l655 2AF2  
                            l668 2D1A                     __CFG_CPB$OFF 000000  
                   __CFG_CPD$OFF 000000                     __CFG_BORV$18 000000  
                   ___awmod@sign 00C7                              prod 000FF3  
                    lcd_gotoXY@x 00B8                              wreg 000FE8  
                    lcd_gotoXY@y 00B7     __size_of_lcd_effaceAffichage 000E  
                    main@nbMines 00F2                     __CFG_LVP$OFF 000000  
                           l3001 2786                             l3011 2F4C  
                           l1091 3286                             l2301 33A0  
                           l3021 2FA2                             l3013 2F52  
                           l3101 1F60                             l3005 279C  
                           l2231 3464                             l2311 33B8  
                           l2303 33A2                             l3023 2FA6  
                           l3111 1F6E                             l3031 2816  
                           l3007 27B2                             l1088 348A  
                           l2241 32F6                             l2233 32DC  
                           l2313 33BC                             l2305 33AC  
                           l2321 328C                             l3017 2F68  
                           l2401 0BC8                             l3113 1FBC  
                           l3041 2898                             l3033 2826  
                           l3025 27CA                             l3009 27B6  
                           l3201 234C                             l2227 34BA  
                           l2251 3316                             l2243 32F8  
                           l2235 32E4                             l2315 33BC  
                           l2307 33B0                             l2323 329C  
                           l2331 32BA                             l3019 2F76  
                           l2411 0CC2                             l2403 0C26  
                           l3131 21BC                             l3115 200A  
                           l3123 205E                             l3051 2926  
                           l3043 28B2                             l3035 2840  
                           l3027 27E4                             l3107 1F66  
                           l3203 239A                             l2245 3302  
                           l2237 32F4                             l2261 30A0  
                           l2341 2F12                             l2333 2EDE  
                           l2317 33C0                             l2309 33B0  
                           l2325 32A6                             l2501 2A2E  
                           l2421 0E02                             l2413 0D20  
                           l2405 0C92                             l3125 20AC  
                           l3117 2058                             l3133 21C8  
                           l3045 28CA                             l3053 2932  
                           l3037 2872                             l3029 27FE  
                           l3061 1D2A                             l3205 23DA  
                           l2247 3304                             l2239 32F6  
                           l2255 34B2                             l2271 30B2  
                           l2263 30A0                             l2335 2EE2  
                           l2327 32B0                             l3143 2FD6  
                           l2511 2A5C                             l2503 2A34  
                           l2423 0E16                             l2431 0F52  
                           l2415 0D7E                             l2407 0C96  
                           l3127 20FA                             l3047 28DA  
                           l3039 287E                             l3071 1DC0  
                           l3063 1D30                             l3055 1CF8  
                           l3207 23E0                             l2249 3304  
                           l2281 30D8                             l2273 30B2  
                           l2265 30A2                             l2257 3098  
                           l2337 2EF2                             l2345 2F22  
                           l3145 2FE4                             l3137 2FBA  
                           l2521 2A8A                             l2513 2A64  
                           l2505 2A42                             l2441 10B4  
                           l2433 0F66                             l2425 0E7C  
                           l2417 0DEA                             l2409 0CAC  
                           l2361 0712                             l2353 063C  
                           l2601 24C2                             l3129 2176  
                           l3049 28F4                             l3081 1EBE  
                           l3073 1DFE                             l3057 1D14  
                           l3209 23F2                             l3161 21E8  
                           l2283 30EC                             l2275 30BA  
                           l2267 30A4                             l2259 309C  
                           l2339 2F02                             l3147 3010  
                           l3139 2FC0                             l2531 2AC4  
                           l2523 2A92                             l2515 2A68  
                           l2507 2A4A                             l2347 341A  
                           l2443 197C                             l2435 0F7C  
                           l2427 0EE2                             l2419 0DEE  
                           l2371 0850                             l2363 076C  
                           l2355 0640                             l2611 25DC  
                           l2603 2500                             l3091 1F00  
                           l3083 1EC6                             l3075 1E06  
                           l3067 1D46                             l3171 21FC  
                           l3163 21EC                             l2285 30F6  
                           l2277 30BE                             l2269 30AE  
                           l2293 3396                             l3149 3014  
                           l2541 2AEA                             l2533 2AC6  
                           l2525 2AA0                             l2517 2A70  
                           l2509 2A4E                             l2349 3438  
                           l2461 19D0                             l2453 19A2  
                           l2445 1980                             l2437 0FE2  
                           l2429 0F4E                             l2381 0992  
                           l2373 08BC                             l2357 0656  
                           l2365 0770                             l2605 253E  
                           l2613 25E2                             l3093 1F12  
                           l3077 1E42                             l3069 1D82  
                           l3085 1ED8                             l2701 13E2  
                           l2621 3058                             l3181 222C  
                           l3173 2200                             l3165 21F0  
                           l2287 30FA                             l2279 30C6  
                           l2295 339A                             l2535 2ACC  
                           l2527 2AA6                             l2519 2A82  
                           l2551 2C86                             l2471 1A14  
                           l2455 19B4                             l2447 1984  
                           l2439 1048                             l2391 0AD0  
                           l2383 09EC                             l2367 0784  
                           l2375 08C0                             l2359 06B4  
                           l2607 259A                             l3095 1F3C  
                           l3087 1EDC                             l3079 1E80  
                           l2711 14C4                             l2703 1448  
                           l2623 3062                             l2615 3028  
                           l3191 228C                             l3183 223A  
                           l3175 220C                             l3167 21F4  
                           l3159 21CC                             l2289 30FA  
                           l2297 339E                             l2529 2ABC  
                           l2537 2AD2                             l2561 2CBA  
                           l2553 2C8A                             l2545 2C6A  
                           l2473 1A8E                             l2481 1C6A  
                           l2465 19EA                             l2457 19C6  
                           l2449 1988                             l2393 0B3C  
                           l2377 08D6                             l2385 09F0  
                           l2369 07EA                             l2609 25D0  
                           l2721 33CA                             l3097 1F4E  
                           l3089 1EEE                             l2801 3104  
                           l2625 349A                             l2713 14D8  
                           l2705 144C                             l2617 303A  
                           l2641 2E26                             l2633 2DDA  
                           l3193 22A0                             l3185 224C  
                           l3177 2210                             l3169 21F8  
                           l2299 339E                             l2539 2AE2  
                           l2571 2CF4                             l2563 2CC2  
                           l2555 2C98                             l2547 2C70  
                           l2483 1C7E                             l2475 1B06  
                           l2467 19FC                             l2491 1CB0  
                           l2459 19CC                             l2387 0A04  
                           l2395 0B40                             l2379 0934  
                           l2731 154C                             l2723 33DE  
                           l3099 1F52                             l2811 3126  
                           l2803 3118                             l2715 153E  
                           l2707 1462                             l2619 3048  
                           l2651 3268                             l2643 2E2A  
                           l2635 2DE0                             l2627 2DBE  
                           l3195 22B6                             l3187 2268  
                           l3179 2214                             l2565 2CD0  
                           l2573 2CFA                             l2557 2CA0  
                           l2549 2C7E                             l2493 1CC4  
                           l2485 1C90                             l2477 1B2A  
                           l2469 1A0E                             l2397 0B56  
                           l2389 0A6A                             l2741 159C  
                           l2733 155C                             l2725 33DE  
                           l2581 348C                             l2821 3146  
                           l2813 312E                             l2805 311A  
                           l2901 2E70                             l2709 14C0  
                           l2661 1116                             l2717 1542  
                           l2653 327A                             l2645 2E3C  
                           l2629 2DC4                             l3197 2302  
                           l3189 227A                             l2583 2BB6  
                           l2575 2D0A                             l2567 2CE6  
                           l2559 2CB2                             l2495 1CD6  
                           l2487 1C96                             l2479 1BFC  
                           l2399 0B6A                             l2751 15D2  
                           l2743 15A2                             l2727 33EE  
                           l2591 34AA                             l2831 3164  
                           l2823 314A                             l2815 3134  
                           l2807 311C                             l2911 2EB4  
                           l2903 2E74                             l2671 1208  
                           l2663 112C                             l2647 2E40  
                           l2639 2DF6                             l3199 2342  
                           l2585 2BC0                             l2577 2D12  
                           l2569 2CEE                             l2497 1CDC  
                           l2489 1C9A                             l2593 240C  
                           l2761 16F4                             l2753 15E4  
                           l2745 15A6                             l2737 1578  
                           l2921 2956                             l2841 2D3E  
                           l2833 2D1C                             l2825 3152  
                           l2817 3138                             l2809 3122  
                           l2913 2EB8                             l2905 2E8C  
                           l2681 1298                             l2673 120C  
                           l2665 118A                             l2657 10BA  
                           l2649 3232                             l2587 2C0C  
                           l2499 1CE0                             l2595 2416  
                           l2771 18FE                             l2763 17C6  
                           l2755 15EA                             l2739 158A  
                           l2931 2988                             l2851 2D90  
                           l2843 2D44                             l2835 2D22  
                           l2827 3158                             l2819 3140  
                           l2915 2ED4                             l2907 2E98  
                           l2691 133A                             l2683 12AE  
                           l2675 1222                             l2667 118E  
                           l2659 10C0                             l2589 2C10  
                           l2597 243C                             l2781 1944  
                           l2773 1910                             l2765 1840  
                           l2757 1664                             l2749 15C0  
                           l2933 29B8                             l2941 29E4  
                           l2925 296C                             l2861 3366  
                           l2853 2DA2                             l2837 2D28  
                           l2829 315C                             l2917 34A2  
                           l2909 2EB0                             l2693 134E  
                           l2685 12C4                             l2677 1236  
                           l2669 11A2                             l2599 24A0  
                           l2783 1956                             l2775 1916  
                           l2767 187C                             l2759 16DC  
                           l2791 317A                             l2951 2A1A  
                           l2943 29EA                             l2935 29BC  
                           l2927 2972                             l2919 2950  
                           l2871 3382                             l2863 3370  
                           l2855 2DA6                             l2847 2D5A  
                           l2695 13B4                             l2687 1322  
                           l2679 1294                             l2785 195C  
                           l2777 191A                             l2769 18EA  
                           l2793 3192                             l2937 29CE  
                           l2881 3446                             l2873 3386  
                           l2865 3372                             l2849 2D8C  
                           l2857 2DB8                             l2697 13B8  
                           l2689 1326                             l2961 2B6E  
                           l2953 2AF4                             l2787 1960  
                           l2779 1930                             l2795 31B6  
                           l2947 2A00                             l2939 29D2  
                           l2891 3456                             l2883 344E  
                           l2875 3388                             l2867 337E  
                           l2859 335E                             l2699 13CC  
                           l2963 2B9E                             l2955 2AF8  
                           l2789 316A                             l2949 2A16  
                           l2893 3458                             l2885 3450  
                           l2797 347C                             l2877 338C  
                           l2869 3380                             l2981 2660  
                           l2973 262C                             l2957 2B00  
                           l2965 2BA2                             l2887 3452  
                           l2879 3442                             l2799 3100  
                           l2895 33F2                             l2991 2754  
                           l2983 2674                             l2975 2632  
                           l2967 260A                             l2959 2B30  
                           l2889 3454                             l2897 3414  
                           l2993 2758                             l2985 26B2  
                           l2969 2616                             l2899 2E54  
                           l2987 26E6                             l2995 276A  
                           l2979 2648                             l2997 276E  
                           l2989 2724                             l2999 2780  
                           STR_1 0629                             STR_2 0632  
                           u2000 0F66                             u2001 0F62  
                           u2010 0F7C                             u2011 0F78  
                           u2100 1A8E                             u2020 0FE2  
                           u2101 1A8A                             u2021 0FDE  
                           u2110 1B06                             u2030 1048  
                           u2111 1B02                             u2031 1044  
                           u2200 2A82                             u2120 1C7E  
                           u2040 199E                             u3000 27C8  
                           u2201 2A7E                             u2121 1C7A  
                           u2041 199A                             u3001 27C4  
                           u3010 2F64                             u2210 2AA0  
                           u2130 1C90                             u2050 19B4  
                           u3011 2F60                             u2211 2A9C  
                           u2131 1C8C                             u2051 19B0  
                           u2300 2C08                             u3020 2FB8  
                           u2220 2ABC                             u2140 1CB0  
                           u2060 19C6                             u3100 2926  
                           u3021 2FB4                             u2221 2AB8  
                           u2141 1CAC                             u2061 19C2  
                           u3101 2922                             u2310 2C58  
                           u2230 2AE2                             u2150 1CC4  
                           u2070 19E6                             u3030 27E4  
                           u3110 1D26                             u2231 2ADE  
                           u2151 1CC0                             u2071 19E2  
                           u3031 27E0                             u3111 1D22  
                           u2320 2C68                             u2240 2C7E  
                           u2160 1CD6                             u2080 19FC  
                           u3040 2816                             u3200 1EEE  
                           u3120 1D42                             u2400 2E3C  
                           u2321 2C64                             u2241 2C7A  
                           u2161 1CD2                             u2081 19F8  
                           u3041 2812                             u3201 1EEA  
                           u3121 1D3E                             u2401 2E38  
                           u2250 2C98                             u2170 1CF6  
                           u2090 1A0E                             u2330 2500  
                           u3050 2840                             u3210 1F00  
                           u3130 1D82                             u2410 2E52  
                           u2307 2BFE                             u2251 2C94  
                           u2171 1CF2                             u2091 1A0A  
                           u2331 24FC                             u3051 283C  
                           u3211 1EFC                             u3131 1D7E  
                           u2411 2E4E                             u3300 2FD2  
                           u2180 2A42                             u2260 2CB2  
                           u2340 253E                             u3060 2872  
                           u3220 1F12                             u3140 1DC0  
                           u2500 12AE                             u2420 1116  
                           u2317 2C4E                             u3301 2FCE  
                           u2181 2A3E                             u2261 2CAE  
                           u2341 253A                             u3061 286E  
                           u3221 1F0E                             u3141 1DBC  
                           u2501 12AA                             u2421 1112  
                           u3310 3026                             u2190 2A5C  
                           u2270 2CD0                             u2350 2608  
                           u3070 2898                             u3230 1F3C  
                           u3150 1DFE                             u2510 12C4  
                           u2430 112C                             u3311 3022  
                           u2191 2A58                             u2271 2CCC  
                           u2351 2604                             u3071 2894  
                           u3231 1F38                             u3151 1DFA  
                           u2511 12C0                             u2431 1128  
                           u2280 2CE6                             u1800 07EA  
                           u3080 28CA                             u3240 1F4E  
                           u3160 1E42                             u2600 14C0  
                           u2520 1322                             u2440 118A  
                           u2360 3048                             u2281 2CE2  
                           u1801 07E6                             u3081 28C6  
                           u3241 1F4A                             u3161 1E3E  
                           u2601 14BC                             u2521 131E  
                           u2441 1186                             u2361 3044  
                           u1730 3314                             u2290 2D0A  
                           u1810 0850                             u3250 1FBC  
                           u3090 28F4                             u3170 1E80  
                           u2610 14D8                             u2530 133A  
                           u2450 11A2                             u2370 3082  
                           u3330 223A                             u1731 3310  
                           u2291 2D06                             u1811 084C  
                           u3251 1FB8                             u3091 28F0  
                           u3171 1E7C                             u2611 14D4  
                           u2531 1336                             u2451 119E  
                           u2371 307E                             u3331 2236  
                           u1740 30D8                             u1900 0BC8  
                           u1820 08D6                             u2700 1664  
                           u3260 200A                             u3180 1EBE  
                           u2620 153E                             u2540 134E  
                           u2460 1208                             u2380 2DD6  
                           u3340 2268                             u1741 30D4  
                           u1901 0BC4                             u1821 08D2  
                           u2701 1660                             u3261 2006  
                           u3181 1EBA                             u2621 153A  
                           u2541 134A                             u2461 1204  
                           u2381 2DD2                             u3341 2264  
                           u1750 30EC                             u1910 0C26  
                           u1830 0934                             u2710 16DC  
                           u3270 2058                             u2630 33EE  
                           u3190 1ED8                             u2550 13B4  
                           u2470 1222                             u2390 2DF2  
                           u3350 227A                             u1751 30E8  
                           u1911 0C22                             u1831 0930  
                           u2711 16D8                             u3271 2054  
                           u2631 33EA                             u3191 1ED4  
                           u2551 13B0                             u2471 121E  
                           u2391 2DEE                             u3407 23E8  
                           u3351 2276                             u1920 0CAC  
                           u1840 0992                             u1760 0656  
                           u2720 1840                             u2640 1574  
                           u3280 20AC                             u2800 2D56  
                           u2560 13CC                             u2480 1236  
                           u3360 228C                             u1921 0CA8  
                           u1841 098E                             u1761 0652  
                           u2721 183C                             u2641 1570  
                           u3281 20A8                             u2801 2D52  
                           u2561 13C8                             u2481 1232  
                           u3417 23FA                             u3361 2288  
                           u1930 0CC2                             u1850 0A04  
                           u1770 06B4                             u2730 18FE  
                           u2650 158A                             u3290 20FA  
                           u2810 2DA2                             u2570 13E2  
                           u2490 1294                             u3370 22B6  
                           u3507 30EE                             u1931 0CBE  
                           u1851 0A00                             u1771 06B0  
                           u2731 18FA                             u2651 1586  
                           u3291 20F6                             u2811 2D9E  
                           u3427 2EC4                             u2571 13DE  
                           u2491 1290                             u3371 22B2  
                           u1940 0D20                             u1860 0A6A  
                           u1780 0712                             u2740 1910  
                           u2660 159C                             u2820 2DB8  
                           u2580 1448                             u2900 2B6E  
                           u3380 2302                             u1941 0D1C  
                           u1861 0A66                             u1781 070E  
                           u2741 190C                             u2661 1598  
                           u2821 2DB4                             u3437 310C  
                           u2581 1444                             u2901 2B6A  
                           u3381 22FE                             u1950 0D7E  
                           u1870 0AD0                             u1790 0784  
                           u2750 1930                             u2670 15BC  
                           u2830 2E66                             u2590 1462  
                           u2910 2BB4                             u3390 239A  
                           u1951 0D7A                             u1871 0ACC  
                           u1791 0780                             u2751 192C  
                           u2671 15B8                             u3447 3128  
                           u2591 145E                             u2911 2BB0  
                           u3391 2396                             u1960 0E02  
                           u1880 0B56                             u2760 1944  
                           u2680 15D2                             u2840 2968  
                           u2920 2628                             u1961 0DFE  
                           u1881 0B52                             u2761 1940  
                           u2681 15CE                             u2841 2964  
                           u3457 313A                             u2921 2624  
                           u1970 0E16                             u1890 0B6A  
                           u2770 1956                             u2690 15E4  
                           u2850 2984                             u2930 2644  
                           u1971 0E12                             u1891 0B66  
                           u2771 1952                             u2691 15E0  
                           u2851 2980                             u3467 314C  
                           u2931 2640                             u1980 0E7C  
                           u2780 1976                             u2860 29CE  
                           u2940 2674                             u1981 0E78  
                           u2781 1972                             u2861 29CA  
                           u3477 315E                             u2941 2670  
                           u1990 0EE2                             u2870 29E4  
                           u2790 2D3A                             u2950 26B2  
                           u1991 0EDE                             u3487 31C2  
                           u2871 29E0                             u2791 2D36  
                           u2951 26AE                             u2880 29FC  
                           u2960 2724                             u3497 30C0  
                           u2881 29F8                             u2961 2720  
                           u2890 2A2C                             u2970 276A  
                           u2891 2A28                             u2971 2766  
                           u2980 2780                             _RCIF 007CF5  
                           u2981 277C                             u2990 2798  
                           u2991 2794                             _TMR1 000FCE  
               ??_initialisation 00B6                             _main 21CC  
                           _rand 3232                             fsr1h 000FE2  
                           fsr2h 000FDA                             indf1 000FE7  
                           indf2 000FDF                             fsr1l 000FE1  
                           fsr2l 000FD9                             prodh 000FF4  
                           prodl 000FF3                             start 0000  
                ?_lcd_putMessage 00B9                    __CFG_IESO$OFF 000000  
                  __CFG_MCLRE$ON 000000                     ___param_bank 000000  
                   ?_menuAccueil 00B4                  ??_lcd_ecritChar 00B7  
                          ?_main 00B4                            ?_rand 00C0  
                __end_of___awdiv 2AF4                  __end_of___awmod 2D1C  
                          _ANSEL 000F7E                  ___awdiv@divisor 00B6  
                ___awdiv@counter 00B8                            _RCREG 000FAE  
                          _SPBRG 000FAF                            _PORTD 000F83  
                          _TRISA 000F92                            _TRISB 000F93  
                          _TRISD 000F95                            _TXREG 000FAD  
                  __CFG_PWRT$OFF 000000                    __CFG_WRT0$OFF 000000  
                  __CFG_WRT1$OFF 000000                    __CFG_WRT2$OFF 000000  
                __end_of_deplace 2950              ___lmul@multiplicand 00B8  
                  __CFG_WRT3$OFF 000000                   __CFG_EBTR0$OFF 000000  
                 __CFG_FCMEN$OFF 000000                   __CFG_EBTR1$OFF 000000  
                 __CFG_EBTR2$OFF 000000                   __CFG_EBTR3$OFF 000000  
                  __CFG_WRTB$OFF 000000                    __CFG_WRTC$OFF 000000  
                  __CFG_WRTD$OFF 000000                   __CFG_EBTRB$OFF 000000  
                ??_lcd_initCGRam 00B7                            _gagne 1CF8  
                          _randx 00F6                            _srand 347C  
                          tablat 000FF5                            status 000FD8  
          __size_of_afficheGagne 006A         __end_of_lcd_cacheCurseur 34A2  
                 __CFG_HFOFST$ON 000000       __end_of_enleveEspaceAutour 1CF8  
              ??_afficheTabMines 00C2                   __CFG_PBADEN$ON 000000  
               _metToucheCombien 260A                  __initialization 31D4  
                   __end_of_main 240C                     __end_of_rand 3288  
            enleveTuilesAutour@i 00DD              enleveTuilesAutour@j 00DC  
            enleveTuilesAutour@x 00D9              enleveTuilesAutour@y 00D0  
           lcd_putMessage@chaine 00B9       calculToucheCombien@colonne 00BC  
                         ??_main 00EC                           ??_rand 00C2  
                  main@finPartie 00F1                    __activetblptr 000003  
            _verifieToucheEspace 063C                     _afficheGagne 316A  
                         ?_gagne 00C4                           _ADCON1 000FC1  
                         _ADRESH 000FC4                 ___awdiv@dividend 00B4  
                         ?_srand 00B4                           _ANSELH 000F7F  
                    initTabVue@i 00B6                      initTabVue@j 00B7  
                    initTabVue@k 00B8                   __CFG_WDTEN$OFF 000000  
                   ?_rempliMines 00C8                           _SPBRGH 000FB0  
           ?_verifieToucheEspace 00BA                   __CFG_XINST$OFF 000000  
                 lcd_initCGRam@i 00B9                   lcd_initCGRam@j 00BA  
                 getAnalog@canal 00B5                 __end_of_lcd_busy 331E  
               __end_of_lcd_init 341A                           ___lmul 3028  
                         ___wmul 341A                        ??___awdiv 00B8  
                 __CFG_STVREN$ON 000000                        ??___awmod 00C6  
                         _demine 1F6A                           gagne@i 00CC  
                         gagne@j 00CD                           clear_0 321A  
                         clear_1 3226                 ___awdiv@quotient 00BA  
                ___awmod@divisor 00C4                        ??_deplace 00BD  
                ___awmod@counter 00C6             verifieToucheEspace@i 00C6  
                   __mediumconst 0000                           tblptrh 000FF7  
                         tblptrl 000FF6                           tblptru 000FF8  
                         srand@x 00B4           __size_of_afficheTabVue 006E  
              _lcd_resetSequence 3100                       __accesstop 0060  
        __end_of__initialization 322C              _lcd_strobeEnableBit 34B2  
             ?_lcd_resetSequence 00B4                    ___rparam_used 000000  
          ??_verifieToucheEspace 00C1              _lcd_effaceAffichage 348C  
                   __pidataBANK0 34C0                     __pidataBANK2 331E  
            ??_lcd_resetSequence 00B6                    __end_of_gagne 1F6A  
                  __end_of_srand 348C             __size_of_menuAccueil 0086  
           ?_lcd_strobeEnableBit 00B4               __size_of_getAnalog 002C  
              _lcd_montreCurseur 34A2               ?_lcd_montreCurseur 00B4  
           ?_lcd_effaceAffichage 00B4               __size_of_lcd_wrCom 006C  
                        ??_gagne 00C6        __end_of_lcd_resetSequence 316A  
                        ??_srand 00B6         __size_of_lcd_lireDonnees 0006  
              _lcd_ecrireDonnees 3460                       __pbssBANK0 0060  
                     __pbssBANK1 019C                 ??_lcd_putMessage 00BC  
            ??_lcd_montreCurseur 00B7               ?_lcd_ecrireDonnees 00B4  
       __size_of_lcd_curseurHome 0008              ??_lcd_ecrireDonnees 00B4  
                        ?___lmul 00B4                          ?___wmul 00B4  
                        ?_demine 00DE                    _afficheTabVue 2F4C  
      __end_of_lcd_montreCurseur 34AA                   ___lmul@product 00BC  
    __size_of_enleveTuilesAutour 0430            ??_lcd_strobeEnableBit 00B4  
             __size_of_videMines 0096     __size_of_calculToucheCombien 048E  
       __end_of_metToucheCombien 27CA                       _lcd_gotoXY 2EDA  
          ??_lcd_effaceAffichage 00B7                       _lcd_wrData 3392  
                _afficheTabMines 2FBA        __end_of_lcd_ecrireDonnees 347C  
                    openSpaces@i 0198                        ?_lcd_busy 00B4  
                      ?_lcd_init 00B4          lcd_ecrireDonnees@donnee 00B5  
    metToucheCombien@minesTouche 00C7                       _m_tabMines 0060  
              __end_of_getAnalog 33F2                ?_lcd_cacheCurseur 00B4  
           __size_of_rempliMines 00C2                          __Hparam 0000  
                        __Lparam 0000               ??_lcd_cacheCurseur 00B7  
      enleveEspaceAutour@xTabCol 00C3                       _initTabVue 2950  
              __end_of_lcd_wrCom 3100                   ?_afficheTabVue 00B4  
                        ___awdiv 2A2E                  __size_of___lmul 006C  
                        ___awmod 2C6A                  __size_of___wmul 0028  
                __size_of_demine 0262                     __psmallconst 0600  
                        __pcinit 31D4                       _init_serie 3442  
                      _ANSELbits 000F7E               _enleveEspaceAutour 1978  
                        __ramtop 0600                          _deplace 27CA  
                        __ptext0 21CC                          __ptext1 2AF4  
                        __ptext2 2DBE                          __ptext3 3232  
                        __ptext4 3028                          __ptext5 260A  
                        __ptext6 10BA                          __ptext7 2E54  
                        __ptext8 349A                          __ptext9 34A2  
          __end_of_lcd_ecritChar 32DC                  lcd_busy@adresse 00B5  
                      _T1CONbits 000FCD                 ___awmod@dividend 00C2  
                        demine@x 00E7                          demine@y 00DE  
            ?_enleveEspaceAutour 00BA                 lcd_ecritChar@car 00B7  
                     ??_lcd_busy 00B4                       ??_lcd_init 00BB  
     __size_of_lcd_resetSequence 006A             end_of_initialization 322C  
          __end_of_lcd_initCGRam 2DBE                       _openSpaces 240C  
              __end_of_videMines 2E54  calculToucheCombien@nombreTouche 00C3  
              ??_lcd_lireDonnees 00B4             ??_enleveEspaceAutour 00BB  
                      _RCSTAbits 000FAB                          postdec1 000FE5  
                        postdec2 000FDD                          postinc0 000FEE  
                        postinc2 000FDE          __size_of_initialisation 0034  
              ??_lcd_curseurHome 00B7              lcd_ecritChar@posRam 00B8  
     __size_of_lcd_montreCurseur 0008                        _PORTAbits 000F80  
                      _PORTBbits 000F81          __end_of_afficheTabMines 3028  
                    ?_lcd_gotoXY 00B7                        _TRISCbits 000F94  
                    ?_lcd_wrData 00B4       __size_of_lcd_ecrireDonnees 001C  
                      _TXSTAbits 000FAC                  ??_afficheTabVue 00C2  
                    ?_initTabVue 00B4                   __end_of___lmul 3094  
                 __end_of___wmul 3442         verifieToucheEspace@ligne 00BC  
                    _BAUDCONbits 000FB8                      ?_init_serie 00B4  
                 __end_of_demine 21CC              start_initialization 31D4  
    __end_of_verifieToucheEspace 10BA                      ?_openSpaces 00C8  
            _calculToucheCombien 10BA                    ??_menuAccueil 00C2  
            __size_of_lcd_gotoXY 0072                         ??___lmul 00BC  
                       ??___wmul 00B8                    rempliMines@nb 00C8  
            __size_of_lcd_wrData 0034                         ??_demine 00DF  
                    __pdataBANK0 00F6                      __pdataBANK2 0200  
               __CFG_LPT1OSC$OFF 000000             ?_calculToucheCombien 00BA  
               ?_afficheTabMines 00B4                    __pcstackBANK0 00B4  
                  __pcstackBANK1 0100                ?_metToucheCombien 00B4  
             openSpaces@caseVide 0100                 afficheTabMines@i 00C4  
            __size_of_initTabVue 00DE               ??_metToucheCombien 00C4  
           rempliMines@mineReste 00CD                __size_of_lcd_busy 0042  
              __size_of_lcd_init 0028              menuAccueil@menuMsgs 00C4  
            __size_of_init_serie 001E                 gagne@resteTuiles 00CB  
              __CFG_CCP2MX$PORTC 000000                        _getAnalog 33C6  
    __end_of_lcd_strobeEnableBit 34BA                   _initialisation 335E  
     __end_of_enleveTuilesAutour 1978                         ?___awdiv 00B4  
                       ?___awmod 00C2        verifieToucheEspace@iCount 00C0  
               menuAccueil@F2919 0601                         ?_deplace 00B9  
    __end_of_lcd_effaceAffichage 349A                        _lcd_wrCom 3094  
          ??_calculToucheCombien 00BE        __size_of_lcd_cacheCurseur 0008  
            __end_of_menuAccueil 2EDA              __size_of_openSpaces 01FE  
                    __smallconst 0600        enleveTuilesAutour@xTabCol 00DA  
                  ?_afficheGagne 00B4                   __size_of_gagne 0272  
                _lcd_lireDonnees 34BA              lcd_wrData@caractere 00B6  
                 __size_of_srand 0010                    ??_rempliMines 00CA  
                     videMines@i 00B6                       videMines@j 00B7  
                _lcd_curseurHome 34AA                   ___wmul@product 00B8  
         __end_of_initialisation 3392                        _videMines 2DBE  
                     ?_getAnalog 00B4                 __CFG_WDTPS$32768 000000  
        __size_of_lcd_putMessage 00B4                       ?_lcd_wrCom 00B4  
                     _ADCON0bits 000FC2                       _ADCON2bits 000FC0  
              ___wmul@multiplier 00B4                   ??_afficheGagne 00C2  
                   ??_lcd_gotoXY 00B8                     ??_lcd_wrData 00B6  
              lcd_wrCom@commande 00B6                ___lmul@multiplier 00B4  
                      copy_data0 31E8                        copy_data1 3208  
                       __Hparam0 0000           __size_of_lcd_ecritChar 0054  
    enleveEspaceAutour@yTabLigne 00C4                         __Lparam0 0000  
                ?_initialisation 00B4              __end_of_rempliMines 2BB6  
                     ?_videMines 00B4      __size_of_enleveEspaceAutour 0380  
                   ??_initTabVue 00B4               __CFG_BOREN$SBORDIS 000000  
                   rempliMines@x 00CE                     rempliMines@y 00CF  
                    _menuAccueil 2E54               __end_of_lcd_gotoXY 2F4C  
             __end_of_lcd_wrData 33C6                 __size_of___awdiv 00C6  
               __size_of___awmod 00B2                     ??_init_serie 00B4  
         __size_of_lcd_initCGRam 00A2                  lcd_putMessage@j 00C1  
               __size_of_deplace 0186          __end_of_lcd_lireDonnees 34C0  
              openSpaces@colonne 00CA                         _matCGRAM 0200  
        __end_of_lcd_curseurHome 34B2                         __ptext10 33F2  
                       __ptext11 3100                         __ptext20 348C  
                       __ptext12 2D1C                         __ptext21 27CA  
                       __ptext13 34AA                         __ptext30 2A2E  
                       __ptext22 33C6                         __ptext14 335E  
                       __ptext31 2F4C                         __ptext23 1F6A  
                       __ptext15 347C                         __ptext40 32DC  
                       __ptext32 2FBA                         __ptext24 1548  
                       __ptext16 3442                         __ptext41 34BA  
                       __ptext33 2BB6                         __ptext25 240C  
                       __ptext17 2950                         __ptext34 3288  
                       __ptext26 063C                         __ptext18 1CF8  
                       __ptext35 3392                         __ptext27 1978  
                       __ptext19 316A                         __ptext36 2EDA  
                       __ptext28 341A                         __ptext37 3094  
                       __ptext29 2C6A                         __ptext38 34B2  
                       __ptext39 3460                metToucheCombien@i 00C9  
              metToucheCombien@j 00CA                metToucheCombien@k 00C8  
                       _lcd_busy 32DC                         _lcd_init 33F2  
             __end_of_initTabVue 2A2E         calculToucheCombien@ligne 00BA  
                       _m_tabVue 019C                     ??_openSpaces 00CC  
                  __size_of_main 0240                    __size_of_rand 0056  
                    gagne@pMines 00C4               __end_of_init_serie 3460  
                       deplace@x 00B9                         deplace@y 00BB  
                    ??_getAnalog 00B4            __end_of_afficheTabVue 2FBA  
                       main@posX 00F5                         main@posY 00F4  
                    ??_lcd_wrCom 00B6                 _lcd_cacheCurseur 349A  
                  _lcd_ecritChar 3288               __end_of_openSpaces 260A  
             gagne@compteurBombe 00CA                   afficheTabVue@i 00C4  
               openSpaces@xCoord 019A                 openSpaces@yCoord 019B  
                  _lcd_initCGRam 2D1C                      _rempliMines 2AF4  
       __end_ofmenuAccueil@F2919 0629      verifieToucheEspace@tabVerif 00BA  
   __size_of_verifieToucheEspace 0A7E        __size_of_metToucheCombien 01C0  
                    ??_videMines 00B4             __end_of_afficheGagne 31D4  
                 _lcd_putMessage 2BB6              enleveEspaceAutour@i 00C7  
            enleveEspaceAutour@j 00C6              enleveEspaceAutour@x 00C5  
            enleveEspaceAutour@y 00BA                   ?_lcd_ecritChar 00B4  
               ?_lcd_lireDonnees 00B4                  openSpaces@ligne 00C8  
     verifieToucheEspace@colonne 00BE               _enleveTuilesAutour 1548  
               ?_lcd_curseurHome 00B4         __size_of_afficheTabMines 006E  
    enleveTuilesAutour@yTabLigne 00DB                   ?_lcd_initCGRam 00B4  
            ?_enleveTuilesAutour 00D0                __CFG_FOSC$INTIO67 000000  
         __end_of_lcd_putMessage 2C6A  
